Certificate Revocation List (CRL):
        Version 2 (0x1)
    Signature Algorithm: sha256WithRSAEncryption
        Issuer: /CN=Kernel Test CA/OU=Kernel/O=MongoDB/L=New York City/ST=New York/C=US
        Last Update: Aug 21 13:56:28 2014 GMT
        Next Update: Aug 18 13:56:28 2024 GMT
        CRL extensions:
            X509v3 CRL Number: 
                4096
No Revoked Certificates.
    Signature Algorithm: sha256WithRSAEncryption
         48:1b:0b:b1:89:f5:6f:af:3c:dd:2a:a0:e5:55:04:80:16:b4:
         23:98:39:bb:9f:16:c9:25:73:72:c6:a6:73:21:1d:1a:b6:99:
         fc:47:5e:bc:af:64:29:02:9c:a5:db:15:8a:65:48:3c:4f:a6:
         cd:35:47:aa:c6:c0:39:f5:a6:88:8f:1b:6c:26:61:4e:10:d7:
         e2:b0:20:3a:64:92:c1:d3:2a:11:3e:03:e2:50:fd:4e:3c:de:
         e2:e5:78:dc:8e:07:a5:69:55:13:2b:8f:ae:21:00:42:85:ff:
         b6:b1:2b:69:08:40:5a:25:8c:fe:57:7f:b1:06:b0:72:ff:61:
         de:21:59:05:a8:1b:9e:c7:8a:08:ab:f5:bc:51:b3:36:68:0f:
         54:65:3c:8d:b7:80:d0:27:01:3e:43:97:89:19:89:0e:c5:01:
         2c:55:9f:b6:e4:c8:0b:35:f8:52:45:d3:b4:09:ce:df:73:98:
         f5:4c:e4:5a:06:ac:63:4c:f8:4d:9c:af:88:fc:19:f7:77:ea:
         ee:56:18:49:16:ce:62:66:d1:1b:8d:66:33:b5:dc:b1:25:b3:
         6c:81:e9:d0:8a:1d:83:61:49:0e:d9:94:6a:46:80:41:d6:b6:
         59:a9:30:55:3d:5b:d3:5b:f1:37:ec:2b:76:d0:3a:ac:b2:c8:
         7c:77:04:78
-----BEGIN X509 CRL-----
MIIBzjCBtwIBATANBgkqhkiG9w0BAQsFADB0MRcwFQYDVQQDEw5LZXJuZWwgVGVz
dCBDQTEPMA0GA1UECxMGS2VybmVsMRAwDgYDVQQKEwdNb25nb0RCMRYwFAYDVQQH
Ew1OZXcgWW9yayBDaXR5MREwDwYDVQQIEwhOZXcgWW9yazELMAkGA1UEBhMCVVMX
DTE0MDgyMTEzNTYyOFoXDTI0MDgxODEzNTYyOFqgDzANMAsGA1UdFAQEAgIQADAN
BgkqhkiG9w0BAQsFAAOCAQEASBsLsYn1b6883Sqg5VUEgBa0I5g5u58WySVzcsam
cyEdGraZ/EdevK9kKQKcpdsVimVIPE+mzTVHqsbAOfWmiI8bbCZhThDX4rAgOmSS
wdMqET4D4lD9Tjze4uV43I4HpWlVEyuPriEAQoX/trEraQhAWiWM/ld/sQawcv9h
3iFZBagbnseKCKv1vFGzNmgPVGU8jbeA0CcBPkOXiRmJDsUBLFWftuTICzX4UkXT
tAnO33OY9UzkWgasY0z4TZyviPwZ93fq7lYYSRbOYmbRG41mM7XcsSWzbIHp0Iod
g2FJDtmUakaAQda2WakwVT1b01vxN+wrdtA6rLLIfHcEeA==
-----END X509 CRL-----
