Certificate Revocation List (CRL):
        Version 2 (0x1)
    Signature Algorithm: sha256WithRSAEncryption
        Issuer: /CN=CDriver CA/OU=Drivers/O=MongoDB/L=Reykjavik/ST=Reykjavik/C=IS
        Last Update: Apr 14 20:38:24 2016 GMT
        Next Update: May 14 20:38:24 2016 GMT
        CRL extensions:
            X509v3 CRL Number: 
                4096
Revoked Certificates:
    Serial Number: 070144
        Revocation Date: Apr 14 20:38:24 2016 GMT
    Signature Algorithm: sha256WithRSAEncryption
         77:1e:77:ec:37:f0:50:55:5b:da:9d:87:3e:4a:0c:72:d3:f7:
         48:5c:27:18:10:cb:cc:cc:07:78:b6:d0:1f:0b:e1:b7:e7:28:
         ac:1e:a5:f7:65:c4:2c:73:65:14:a3:4a:98:3c:51:b6:d1:fc:
         62:56:7a:bf:94:93:ce:fa:25:cf:de:ff:b9:05:79:5d:11:31:
         f2:17:8d:56:31:2a:4f:97:dc:a7:21:e1:5a:03:4f:86:a7:ec:
         10:d6:5e:77:72:89:21:d8:7e:11:af:f3:50:19:36:55:e6:de:
         14:1c:3e:d9:30:c3:dc:ac:b2:91:a1:45:56:46:38:a0:fa:2e:
         d8:65:e1:19:d1:f7:a3:25:b1:57:f1:54:05:13:87:78:0a:dd:
         46:6d:dc:18:1b:4c:4e:d5:17:15:a8:fc:9d:39:51:e7:b4:48:
         24:ac:28:c1:0e:1d:f0:ac:f9:4e:a2:61:b9:4d:4e:7d:e3:8b:
         2a:10:46:63:2c:13:65:68:c4:b3:23:f5:30:26:c2:a8:ea:ac:
         0f:8c:a0:8a:37:d3:27:88:f1:d4:95:38:8f:30:91:7b:9e:d8:
         ed:8d:9c:61:02:a0:5f:9b:97:69:06:05:b7:c2:ef:40:b4:1a:
         8c:4c:ec:5f:8a:0e:1f:bb:fe:81:41:eb:3f:16:f5:75:03:06:
         8b:c3:64:a2
-----BEGIN X509 CRL-----
MIIB4DCByQIBATANBgkqhkiG9w0BAQsFADBuMRMwEQYDVQQDEwpDRHJpdmVyIENB
MRAwDgYDVQQLEwdEcml2ZXJzMRAwDgYDVQQKEwdNb25nb0RCMRIwEAYDVQQHEwlS
ZXlramF2aWsxEjAQBgNVBAgTCVJleWtqYXZpazELMAkGA1UEBhMCSVMXDTE2MDQx
NDIwMzgyNFoXDTE2MDUxNDIwMzgyNFowFjAUAgMHAUQXDTE2MDQxNDIwMzgyNFqg
DzANMAsGA1UdFAQEAgIQADANBgkqhkiG9w0BAQsFAAOCAQEAdx537DfwUFVb2p2H
PkoMctP3SFwnGBDLzMwHeLbQHwvht+corB6l92XELHNlFKNKmDxRttH8YlZ6v5ST
zvolz97/uQV5XREx8heNVjEqT5fcpyHhWgNPhqfsENZed3KJIdh+Ea/zUBk2Vebe
FBw+2TDD3KyykaFFVkY4oPou2GXhGdH3oyWxV/FUBROHeArdRm3cGBtMTtUXFaj8
nTlR57RIJKwowQ4d8Kz5TqJhuU1OfeOLKhBGYywTZWjEsyP1MCbCqOqsD4ygijfT
J4jx1JU4jzCRe57Y7Y2cYQKgX5uXaQYFt8LvQLQajEzsX4oOH7v+gUHrPxb1dQMG
i8Nkog==
-----END X509 CRL-----
