	.text
	.syntax unified
	.eabi_attribute	67, "2.09"	@ Tag_conformance
	.eabi_attribute	6, 1	@ Tag_CPU_arch
	.eabi_attribute	8, 1	@ Tag_ARM_ISA_use
	.eabi_attribute	34, 1	@ Tag_CPU_unaligned_access
	.eabi_attribute	15, 1	@ Tag_ABI_PCS_RW_data
	.eabi_attribute	16, 1	@ Tag_ABI_PCS_RO_data
	.eabi_attribute	17, 2	@ Tag_ABI_PCS_GOT_use
	.eabi_attribute	20, 1	@ Tag_ABI_FP_denormal
	.eabi_attribute	21, 1	@ Tag_ABI_FP_exceptions
	.eabi_attribute	23, 3	@ Tag_ABI_FP_number_model
	.eabi_attribute	24, 1	@ Tag_ABI_align_needed
	.eabi_attribute	25, 1	@ Tag_ABI_align_preserved
	.eabi_attribute	28, 1	@ Tag_ABI_VFP_args
	.eabi_attribute	38, 1	@ Tag_ABI_FP_16bit_format
	.eabi_attribute	14, 0	@ Tag_ABI_PCS_R9_use
	.file	"base32.ll"
	.globl	makeNIST_P192L                  @ -- Begin function makeNIST_P192L
	.p2align	2
	.type	makeNIST_P192L,%function
	.code	32                              @ @makeNIST_P192L
makeNIST_P192L:
	.fnstart
@ %bb.0:
	mvn	r1, #0
	mvn	r2, #1
	str	r1, [r0]
	stmib	r0, {r1, r2}
	str	r1, [r0, #12]
	str	r1, [r0, #16]
	str	r1, [r0, #20]
	mov	pc, lr
.Lfunc_end0:
	.size	makeNIST_P192L, .Lfunc_end0-makeNIST_P192L
	.cantunwind
	.fnend
                                        @ -- End function
	.globl	mcl_fpDbl_mod_NIST_P192L        @ -- Begin function mcl_fpDbl_mod_NIST_P192L
	.p2align	2
	.type	mcl_fpDbl_mod_NIST_P192L,%function
	.code	32                              @ @mcl_fpDbl_mod_NIST_P192L
mcl_fpDbl_mod_NIST_P192L:
	.fnstart
@ %bb.0:
	.save	{r4, r5, r6, r7, r8, r9, r10, r11, lr}
	push	{r4, r5, r6, r7, r8, r9, r10, r11, lr}
	add	lr, r1, #28
	add	r9, r1, #8
	ldm	r1, {r10, r12}
	ldr	r4, [r1, #24]
	ldr	r2, [r1, #40]
	ldr	r3, [r1, #44]
	adds	r10, r10, r4
	ldm	lr, {r1, r5, lr}
	ldm	r9, {r6, r7, r8, r9}
	adcs	r11, r12, r1
	adcs	r12, r6, r5
	mov	r6, #0
	adcs	r7, r7, lr
	adcs	r8, r8, r2
	adcs	r9, r9, r3
	adc	r6, r6, #0
	adds	r10, r10, r2
	adcs	r11, r11, r3
	adcs	r4, r12, r4
	adcs	r12, r7, r1
	mov	r1, #0
	adcs	r5, r8, r5
	adcs	r7, r9, lr
	adcs	r6, r6, #0
	adc	r1, r1, #0
	adds	r2, r4, r2
	adcs	lr, r12, r3
	adcs	r3, r5, #0
	adcs	r7, r7, #0
	mrs	r5, apsr
	adcs	r4, r6, #0
	adc	r1, r1, #0
	msr	APSR_nzcvq, r5
	adcs	r12, r10, r6
	adcs	r8, r1, r11
	adcs	r9, r4, r2
	adcs	r10, r1, lr
	mov	r1, #0
	adcs	r11, r3, #0
	adcs	r7, r7, #0
	adc	r6, r1, #0
	adds	lr, r12, #1
	adcs	r5, r8, #0
	adcs	r2, r9, #1
	adcs	r4, r10, #0
	adcs	r1, r11, #0
	adcs	r3, r7, #0
	sbc	r6, r6, #0
	ands	r6, r6, #1
	movne	r3, r7
	movne	r1, r11
	movne	r4, r10
	cmp	r6, #0
	movne	r2, r9
	movne	r5, r8
	movne	lr, r12
	str	r3, [r0, #20]
	str	r1, [r0, #16]
	str	r4, [r0, #12]
	str	r2, [r0, #8]
	str	r5, [r0, #4]
	str	lr, [r0]
	pop	{r4, r5, r6, r7, r8, r9, r10, r11, lr}
	mov	pc, lr
.Lfunc_end1:
	.size	mcl_fpDbl_mod_NIST_P192L, .Lfunc_end1-mcl_fpDbl_mod_NIST_P192L
	.cantunwind
	.fnend
                                        @ -- End function
	.globl	mcl_fp_sqr_NIST_P192L           @ -- Begin function mcl_fp_sqr_NIST_P192L
	.p2align	2
	.type	mcl_fp_sqr_NIST_P192L,%function
	.code	32                              @ @mcl_fp_sqr_NIST_P192L
mcl_fp_sqr_NIST_P192L:
	.fnstart
@ %bb.0:
	.save	{r4, r5, r6, r7, r8, r9, r10, r11, lr}
	push	{r4, r5, r6, r7, r8, r9, r10, r11, lr}
	.pad	#60
	sub	sp, sp, #60
	mov	r8, r0
	add	r0, sp, #12
	bl	mcl_fpDbl_sqrPre6L
	add	r5, sp, #16
	ldr	r3, [sp, #12]
	ldr	r6, [sp, #36]
	ldr	r2, [sp, #40]
	ldm	r5, {r0, r1, r5}
	adds	r10, r3, r6
	ldr	lr, [sp, #44]
	adcs	r4, r0, r2
	ldr	r12, [sp, #48]
	adcs	r9, r1, lr
	ldr	r7, [sp, #52]
	ldr	r0, [sp, #28]
	adcs	r11, r5, r12
	ldr	r1, [sp, #56]
	ldr	r3, [sp, #32]
	adcs	r5, r0, r7
	mov	r0, #0
	adcs	r3, r3, r1
	adc	r0, r0, #0
	adds	r10, r10, r7
	adcs	r4, r4, r1
	str	r4, [sp, #4]                    @ 4-byte Spill
	adcs	r6, r9, r6
	mov	r4, #0
	adcs	r2, r11, r2
	adcs	r5, r5, lr
	adcs	r3, r3, r12
	adcs	r0, r0, #0
	adc	r12, r4, #0
	adds	r7, r6, r7
	adcs	lr, r2, r1
	mov	r4, #0
	adcs	r2, r5, #0
	adcs	r3, r3, #0
	mrs	r6, apsr
	adcs	r5, r0, #0
	adc	r1, r12, #0
	msr	APSR_nzcvq, r6
	ldr	r6, [sp, #4]                    @ 4-byte Reload
	adcs	r0, r10, r0
	str	r0, [sp, #8]                    @ 4-byte Spill
	adcs	r12, r1, r6
	adcs	r9, r5, r7
	adcs	r10, r1, lr
	adcs	r11, r2, #0
	adcs	r3, r3, #0
	adc	lr, r4, #0
	adds	r0, r0, #1
	adcs	r6, r12, #0
	adcs	r7, r9, #1
	adcs	r5, r10, #0
	adcs	r1, r11, #0
	adcs	r2, r3, #0
	sbc	r4, lr, #0
	ands	r4, r4, #1
	movne	r1, r11
	movne	r2, r3
	str	r1, [r8, #16]
	movne	r5, r10
	ldr	r1, [sp, #8]                    @ 4-byte Reload
	cmp	r4, #0
	movne	r7, r9
	movne	r6, r12
	str	r2, [r8, #20]
	movne	r0, r1
	str	r5, [r8, #12]
	str	r7, [r8, #8]
	str	r6, [r8, #4]
	str	r0, [r8]
	add	sp, sp, #60
	pop	{r4, r5, r6, r7, r8, r9, r10, r11, lr}
	mov	pc, lr
.Lfunc_end2:
	.size	mcl_fp_sqr_NIST_P192L, .Lfunc_end2-mcl_fp_sqr_NIST_P192L
	.cantunwind
	.fnend
                                        @ -- End function
	.globl	mcl_fp_mulNIST_P192L            @ -- Begin function mcl_fp_mulNIST_P192L
	.p2align	2
	.type	mcl_fp_mulNIST_P192L,%function
	.code	32                              @ @mcl_fp_mulNIST_P192L
mcl_fp_mulNIST_P192L:
	.fnstart
@ %bb.0:
	.save	{r4, r5, r6, r7, r8, r9, r10, r11, lr}
	push	{r4, r5, r6, r7, r8, r9, r10, r11, lr}
	.pad	#60
	sub	sp, sp, #60
	mov	r8, r0
	add	r0, sp, #12
	bl	mcl_fpDbl_mulPre6L
	add	r5, sp, #16
	ldr	r3, [sp, #12]
	ldr	r6, [sp, #36]
	ldr	r2, [sp, #40]
	ldm	r5, {r0, r1, r5}
	adds	r10, r3, r6
	ldr	lr, [sp, #44]
	adcs	r4, r0, r2
	ldr	r12, [sp, #48]
	adcs	r9, r1, lr
	ldr	r7, [sp, #52]
	ldr	r0, [sp, #28]
	adcs	r11, r5, r12
	ldr	r1, [sp, #56]
	ldr	r3, [sp, #32]
	adcs	r5, r0, r7
	mov	r0, #0
	adcs	r3, r3, r1
	adc	r0, r0, #0
	adds	r10, r10, r7
	adcs	r4, r4, r1
	str	r4, [sp, #4]                    @ 4-byte Spill
	adcs	r6, r9, r6
	mov	r4, #0
	adcs	r2, r11, r2
	adcs	r5, r5, lr
	adcs	r3, r3, r12
	adcs	r0, r0, #0
	adc	r12, r4, #0
	adds	r7, r6, r7
	adcs	lr, r2, r1
	mov	r4, #0
	adcs	r2, r5, #0
	adcs	r3, r3, #0
	mrs	r6, apsr
	adcs	r5, r0, #0
	adc	r1, r12, #0
	msr	APSR_nzcvq, r6
	ldr	r6, [sp, #4]                    @ 4-byte Reload
	adcs	r0, r10, r0
	str	r0, [sp, #8]                    @ 4-byte Spill
	adcs	r12, r1, r6
	adcs	r9, r5, r7
	adcs	r10, r1, lr
	adcs	r11, r2, #0
	adcs	r3, r3, #0
	adc	lr, r4, #0
	adds	r0, r0, #1
	adcs	r6, r12, #0
	adcs	r7, r9, #1
	adcs	r5, r10, #0
	adcs	r1, r11, #0
	adcs	r2, r3, #0
	sbc	r4, lr, #0
	ands	r4, r4, #1
	movne	r1, r11
	movne	r2, r3
	str	r1, [r8, #16]
	movne	r5, r10
	ldr	r1, [sp, #8]                    @ 4-byte Reload
	cmp	r4, #0
	movne	r7, r9
	movne	r6, r12
	str	r2, [r8, #20]
	movne	r0, r1
	str	r5, [r8, #12]
	str	r7, [r8, #8]
	str	r6, [r8, #4]
	str	r0, [r8]
	add	sp, sp, #60
	pop	{r4, r5, r6, r7, r8, r9, r10, r11, lr}
	mov	pc, lr
.Lfunc_end3:
	.size	mcl_fp_mulNIST_P192L, .Lfunc_end3-mcl_fp_mulNIST_P192L
	.cantunwind
	.fnend
                                        @ -- End function
	.globl	mcl_fpDbl_mod_NIST_P521L        @ -- Begin function mcl_fpDbl_mod_NIST_P521L
	.p2align	2
	.type	mcl_fpDbl_mod_NIST_P521L,%function
	.code	32                              @ @mcl_fpDbl_mod_NIST_P521L
mcl_fpDbl_mod_NIST_P521L:
	.fnstart
@ %bb.0:
	.save	{r4, r5, r6, r7, r8, r9, r10, r11, lr}
	push	{r4, r5, r6, r7, r8, r9, r10, r11, lr}
	.pad	#60
	sub	sp, sp, #60
	mov	r3, #255
	ldr	r2, [r1, #64]
	orr	r3, r3, #256
	ldr	r7, [r1, #72]
	and	r11, r2, r3
	ldr	r3, [r1, #68]
	lsr	r2, r2, #9
	ldr	r5, [r1, #4]
	ldr	r4, [r1, #8]
	lsr	r6, r3, #9
	orr	r2, r2, r3, lsl #23
	orr	r6, r6, r7, lsl #23
	lsr	r3, r7, #9
	ldr	r7, [r1]
	ldr	lr, [r1, #12]
	adds	r12, r7, r2
	ldr	r2, [r1, #76]
	adcs	r8, r5, r6
	ldr	r5, [r1, #80]
	ldr	r6, [r1, #24]
	orr	r3, r3, r2, lsl #23
	lsr	r2, r2, #9
	adcs	r9, r4, r3
	ldr	r3, [r1, #84]
	orr	r2, r2, r5, lsl #23
	lsr	r7, r5, #9
	adcs	r4, lr, r2
	ldr	r2, [r1, #16]
	orr	r7, r7, r3, lsl #23
	lsr	r3, r3, #9
	adcs	lr, r2, r7
	ldr	r7, [r1, #88]
	ldr	r5, [r1, #28]
	orr	r2, r3, r7, lsl #23
	ldr	r3, [r1, #20]
	adcs	r10, r3, r2
	lsr	r3, r7, #9
	ldr	r7, [r1, #92]
	orr	r3, r3, r7, lsl #23
	lsr	r7, r7, #9
	adcs	r2, r6, r3
	ldr	r6, [r1, #96]
	orr	r7, r7, r6, lsl #23
	adcs	r3, r5, r7
	lsr	r7, r6, #9
	ldr	r6, [r1, #100]
	ldr	r5, [r1, #32]
	orr	r7, r7, r6, lsl #23
	adcs	r5, r5, r7
	lsr	r7, r6, #9
	ldr	r6, [r1, #104]
	str	r5, [sp, #56]                   @ 4-byte Spill
	ldr	r5, [r1, #36]
	orr	r7, r7, r6, lsl #23
	adcs	r5, r5, r7
	lsr	r7, r6, #9
	ldr	r6, [r1, #108]
	str	r5, [sp, #52]                   @ 4-byte Spill
	ldr	r5, [r1, #40]
	orr	r7, r7, r6, lsl #23
	adcs	r5, r5, r7
	lsr	r7, r6, #9
	ldr	r6, [r1, #112]
	str	r5, [sp, #48]                   @ 4-byte Spill
	ldr	r5, [r1, #44]
	orr	r7, r7, r6, lsl #23
	adcs	r5, r5, r7
	lsr	r7, r6, #9
	ldr	r6, [r1, #116]
	str	r5, [sp, #44]                   @ 4-byte Spill
	ldr	r5, [r1, #48]
	orr	r7, r7, r6, lsl #23
	adcs	r5, r5, r7
	lsr	r7, r6, #9
	ldr	r6, [r1, #120]
	str	r5, [sp, #40]                   @ 4-byte Spill
	ldr	r5, [r1, #52]
	orr	r7, r7, r6, lsl #23
	adcs	r5, r5, r7
	lsr	r7, r6, #9
	ldr	r6, [r1, #124]
	str	r5, [sp, #36]                   @ 4-byte Spill
	ldr	r5, [r1, #56]
	orr	r7, r7, r6, lsl #23
	adcs	r5, r5, r7
	lsr	r7, r6, #9
	ldr	r6, [r1, #128]
	ldr	r1, [r1, #60]
	str	r5, [sp, #32]                   @ 4-byte Spill
	orr	r7, r7, r6, lsl #23
	adcs	r7, r1, r7
	mov	r1, #1
	adc	r11, r11, r6, lsr #9
	and	r1, r1, r11, lsr #9
	adds	r1, r1, r12
	str	r1, [sp, #28]                   @ 4-byte Spill
	adcs	r6, r8, #0
	str	r6, [sp, #24]                   @ 4-byte Spill
	adcs	r5, r9, #0
	and	r1, r6, r1
	adcs	r6, r4, #0
	and	r1, r1, r5
	str	r6, [sp, #16]                   @ 4-byte Spill
	and	r1, r1, r6
	adcs	r6, lr, #0
	str	r6, [sp, #12]                   @ 4-byte Spill
	and	r1, r1, r6
	adcs	r6, r10, #0
	adcs	r2, r2, #0
	and	r1, r1, r6
	str	r2, [sp, #4]                    @ 4-byte Spill
	and	r2, r1, r2
	adcs	r1, r3, #0
	ldr	r3, [sp, #56]                   @ 4-byte Reload
	and	r2, r2, r1
	str	r5, [sp, #20]                   @ 4-byte Spill
	adcs	r9, r3, #0
	ldr	r3, [sp, #52]                   @ 4-byte Reload
	and	r2, r2, r9
	str	r6, [sp, #8]                    @ 4-byte Spill
	adcs	r8, r3, #0
	ldr	r3, [sp, #48]                   @ 4-byte Reload
	and	r2, r2, r8
	adcs	lr, r3, #0
	ldr	r3, [sp, #44]                   @ 4-byte Reload
	and	r2, r2, lr
	adcs	r4, r3, #0
	ldr	r3, [sp, #40]                   @ 4-byte Reload
	and	r2, r2, r4
	adcs	r5, r3, #0
	ldr	r3, [sp, #36]                   @ 4-byte Reload
	and	r2, r2, r5
	adcs	r10, r3, #0
	ldr	r3, [sp, #32]                   @ 4-byte Reload
	and	r2, r2, r10
	adcs	r6, r3, #0
	ldr	r3, .LCPI4_0
	and	r2, r2, r6
	adcs	r7, r7, #0
	and	r12, r2, r7
	adc	r2, r11, #0
	orr	r3, r2, r3
	and	r3, r3, r12
	cmn	r3, #1
	beq	.LBB4_2
@ %bb.1:                                @ %nonzero
	mov	r3, #255
	str	r9, [r0, #32]
	orr	r3, r3, #256
	str	r8, [r0, #36]
	and	r2, r2, r3
	str	r2, [r0, #64]
	add	r2, r0, #44
	str	lr, [r0, #40]
	stm	r2, {r4, r5, r10}
	ldr	r2, [sp, #28]                   @ 4-byte Reload
	str	r2, [r0]
	ldr	r2, [sp, #24]                   @ 4-byte Reload
	str	r2, [r0, #4]
	ldr	r2, [sp, #20]                   @ 4-byte Reload
	str	r2, [r0, #8]
	ldr	r2, [sp, #16]                   @ 4-byte Reload
	str	r2, [r0, #12]
	ldr	r2, [sp, #12]                   @ 4-byte Reload
	str	r2, [r0, #16]
	ldr	r2, [sp, #8]                    @ 4-byte Reload
	str	r2, [r0, #20]
	ldr	r2, [sp, #4]                    @ 4-byte Reload
	str	r6, [r0, #56]
	str	r7, [r0, #60]
	str	r2, [r0, #24]
	str	r1, [r0, #28]
	add	sp, sp, #60
	pop	{r4, r5, r6, r7, r8, r9, r10, r11, lr}
	mov	pc, lr
.LBB4_2:                                @ %zero
	mov	r1, #0
	mov	r2, #68
	bl	memset
	add	sp, sp, #60
	pop	{r4, r5, r6, r7, r8, r9, r10, r11, lr}
	mov	pc, lr
	.p2align	2
@ %bb.3:
.LCPI4_0:
	.long	4294966784                      @ 0xfffffe00
.Lfunc_end4:
	.size	mcl_fpDbl_mod_NIST_P521L, .Lfunc_end4-mcl_fpDbl_mod_NIST_P521L
	.cantunwind
	.fnend
                                        @ -- End function
	.globl	mulPv192x32                     @ -- Begin function mulPv192x32
	.p2align	2
	.type	mulPv192x32,%function
	.code	32                              @ @mulPv192x32
mulPv192x32:
	.fnstart
@ %bb.0:
	.save	{r4, r5, r6, r7, r8, r9, r11, lr}
	push	{r4, r5, r6, r7, r8, r9, r11, lr}
	ldr	r12, [r1]
	ldmib	r1, {r3, lr}
	umull	r7, r6, r12, r2
	ldr	r4, [r1, #12]
	umull	r5, r8, r3, r2
	str	r7, [r0]
	umull	r9, r12, r4, r2
	adds	r7, r6, r5
	umull	r5, r4, lr, r2
	adcs	r7, r8, r5
	umlal	r6, r5, r3, r2
	adcs	r7, r4, r9
	str	r7, [r0, #12]
	str	r5, [r0, #8]
	str	r6, [r0, #4]
	ldr	r3, [r1, #16]
	umull	r7, r6, r3, r2
	adcs	r3, r12, r7
	str	r3, [r0, #16]
	ldr	r1, [r1, #20]
	umull	r3, r7, r1, r2
	adcs	r1, r6, r3
	str	r1, [r0, #20]
	adc	r1, r7, #0
	str	r1, [r0, #24]
	pop	{r4, r5, r6, r7, r8, r9, r11, lr}
	mov	pc, lr
.Lfunc_end5:
	.size	mulPv192x32, .Lfunc_end5-mulPv192x32
	.cantunwind
	.fnend
                                        @ -- End function
	.globl	mcl_fp_mulUnitPre6L             @ -- Begin function mcl_fp_mulUnitPre6L
	.p2align	2
	.type	mcl_fp_mulUnitPre6L,%function
	.code	32                              @ @mcl_fp_mulUnitPre6L
mcl_fp_mulUnitPre6L:
	.fnstart
@ %bb.0:
	.save	{r4, r5, r6, r7, r8, r9, r11, lr}
	push	{r4, r5, r6, r7, r8, r9, r11, lr}
	ldr	r12, [r1]
	ldmib	r1, {r3, lr}
	umull	r7, r6, r12, r2
	ldr	r4, [r1, #12]
	umull	r5, r8, r3, r2
	str	r7, [r0]
	umull	r9, r12, r4, r2
	adds	r7, r6, r5
	umull	r5, r4, lr, r2
	adcs	r7, r8, r5
	umlal	r6, r5, r3, r2
	ldr	r3, [r1, #16]
	adcs	r7, r4, r9
	str	r7, [r0, #12]
	str	r6, [r0, #4]
	umull	r7, r6, r3, r2
	ldr	r1, [r1, #20]
	str	r5, [r0, #8]
	adcs	r3, r12, r7
	str	r3, [r0, #16]
	umull	r3, r7, r1, r2
	adcs	r1, r6, r3
	str	r1, [r0, #20]
	adc	r1, r7, #0
	str	r1, [r0, #24]
	pop	{r4, r5, r6, r7, r8, r9, r11, lr}
	mov	pc, lr
.Lfunc_end6:
	.size	mcl_fp_mulUnitPre6L, .Lfunc_end6-mcl_fp_mulUnitPre6L
	.cantunwind
	.fnend
                                        @ -- End function
	.globl	mcl_fpDbl_mulPre6L              @ -- Begin function mcl_fpDbl_mulPre6L
	.p2align	2
	.type	mcl_fpDbl_mulPre6L,%function
	.code	32                              @ @mcl_fpDbl_mulPre6L
mcl_fpDbl_mulPre6L:
	.fnstart
@ %bb.0:
	.save	{r4, r5, r6, r7, r8, r9, r10, r11, lr}
	push	{r4, r5, r6, r7, r8, r9, r10, r11, lr}
	.pad	#148
	sub	sp, sp, #148
	str	r0, [sp, #36]                   @ 4-byte Spill
	mov	r3, r2
	ldm	r2, {r0, r10}
	ldmib	r1, {r4, r12}
	ldr	lr, [r1]
	ldr	r2, [r2, #8]
	umull	r5, r9, r4, r0
	str	r2, [sp, #124]                  @ 4-byte Spill
	ldr	r2, [r3, #12]
	str	r2, [sp, #104]                  @ 4-byte Spill
	umull	r2, r11, lr, r0
	ldr	r6, [r1, #12]
	str	r12, [sp, #144]                 @ 4-byte Spill
	str	r6, [sp, #28]                   @ 4-byte Spill
	str	r2, [sp, #136]                  @ 4-byte Spill
	adds	r5, r11, r5
	str	lr, [sp, #8]                    @ 4-byte Spill
	umull	r2, r5, r12, r0
	ldr	r12, [r1, #20]
	str	r12, [sp, #20]                  @ 4-byte Spill
	adcs	r7, r9, r2
	umlal	r11, r2, r4, r0
	umull	r7, r9, r6, r0
	adcs	r7, r5, r7
	str	r7, [sp, #132]                  @ 4-byte Spill
	ldr	r7, [r1, #16]
	str	r7, [sp, #32]                   @ 4-byte Spill
	umull	r5, r8, r7, r0
	adcs	r6, r9, r5
	umull	r1, r9, r12, r0
	str	r6, [sp, #128]                  @ 4-byte Spill
	adcs	r1, r8, r1
	str	r1, [sp, #120]                  @ 4-byte Spill
	umull	r5, r1, r10, lr
	adc	r0, r9, #0
	str	r0, [sp, #108]                  @ 4-byte Spill
	ldr	r8, [sp, #28]                   @ 4-byte Reload
	adds	r0, r11, r5
	str	r0, [sp, #140]                  @ 4-byte Spill
	umull	r5, r0, r10, r4
	str	r0, [sp, #116]                  @ 4-byte Spill
	adcs	r0, r2, r5
	str	r0, [sp, #100]                  @ 4-byte Spill
	ldr	r0, [sp, #144]                  @ 4-byte Reload
	ldr	r6, [sp, #100]                  @ 4-byte Reload
	umull	r5, r2, r10, r0
	ldr	r0, [sp, #132]                  @ 4-byte Reload
	str	r2, [sp, #112]                  @ 4-byte Spill
	adcs	r5, r0, r5
	umull	r9, r0, r10, r8
	ldr	r2, [sp, #108]                  @ 4-byte Reload
	str	r0, [sp, #132]                  @ 4-byte Spill
	ldr	r0, [sp, #128]                  @ 4-byte Reload
	adcs	r9, r0, r9
	umull	r11, r0, r10, r7
	str	r0, [sp, #128]                  @ 4-byte Spill
	ldr	r0, [sp, #120]                  @ 4-byte Reload
	adcs	r11, r0, r11
	umull	lr, r0, r10, r12
	ldr	r10, [sp, #8]                   @ 4-byte Reload
	adcs	lr, r2, lr
	mov	r2, #0
	adc	r2, r2, #0
	adds	r1, r6, r1
	str	r1, [sp, #96]                   @ 4-byte Spill
	mov	r6, r8
	ldr	r1, [sp, #116]                  @ 4-byte Reload
	adcs	r1, r5, r1
	str	r1, [sp, #92]                   @ 4-byte Spill
	ldr	r1, [sp, #112]                  @ 4-byte Reload
	adcs	r1, r9, r1
	str	r1, [sp, #88]                   @ 4-byte Spill
	ldr	r1, [sp, #132]                  @ 4-byte Reload
	adcs	r1, r11, r1
	str	r1, [sp, #84]                   @ 4-byte Spill
	ldr	r1, [sp, #128]                  @ 4-byte Reload
	ldr	r11, [sp, #144]                 @ 4-byte Reload
	adcs	r1, lr, r1
	str	r1, [sp, #80]                   @ 4-byte Spill
	adc	r0, r2, r0
	str	r0, [sp, #76]                   @ 4-byte Spill
	ldr	r0, [r3, #20]
	umull	r2, r9, r0, r10
	umull	r1, lr, r0, r4
	str	r2, [sp, #120]                  @ 4-byte Spill
	adds	r1, r9, r1
	umull	r5, r1, r0, r11
	adcs	r2, lr, r5
	umlal	r9, r5, r0, r4
	umull	r2, lr, r0, r8
	str	r5, [sp, #108]                  @ 4-byte Spill
	str	r9, [sp, #100]                  @ 4-byte Spill
	mov	r9, r10
	adcs	r1, r1, r2
	str	r1, [sp, #132]                  @ 4-byte Spill
	umull	r1, r2, r0, r7
	adcs	r1, lr, r1
	str	r1, [sp, #128]                  @ 4-byte Spill
	umull	r1, r5, r0, r12
	adcs	r0, r2, r1
	str	r0, [sp, #116]                  @ 4-byte Spill
	adc	r0, r5, #0
	str	r0, [sp, #112]                  @ 4-byte Spill
	ldr	r0, [r3, #16]
	umull	r5, r2, r0, r10
	umull	r1, r3, r0, r4
	str	r5, [sp, #72]                   @ 4-byte Spill
	adds	r1, r2, r1
	umull	r5, r1, r0, r11
	adcs	r3, r3, r5
	umlal	r2, r5, r0, r4
	umull	r3, lr, r0, r8
	str	r2, [sp, #48]                   @ 4-byte Spill
	str	r5, [sp, #52]                   @ 4-byte Spill
	adcs	r1, r1, r3
	str	r1, [sp, #68]                   @ 4-byte Spill
	umull	r1, r3, r0, r7
	ldr	r7, [sp, #124]                  @ 4-byte Reload
	adcs	r1, lr, r1
	str	r1, [sp, #64]                   @ 4-byte Spill
	umull	r1, r2, r0, r12
	adcs	r0, r3, r1
	str	r0, [sp, #60]                   @ 4-byte Spill
	adc	r0, r2, #0
	ldr	r2, [sp, #104]                  @ 4-byte Reload
	str	r0, [sp, #56]                   @ 4-byte Spill
	umull	r1, r8, r2, r10
	mov	r10, r6
	umull	r0, r3, r2, r4
	str	r1, [sp, #44]                   @ 4-byte Spill
	adds	r0, r8, r0
	umull	lr, r0, r2, r11
	adcs	r3, r3, lr
	umlal	r8, lr, r2, r4
	umull	r3, r1, r2, r6
	str	r1, [sp, #12]                   @ 4-byte Spill
	adcs	r0, r0, r3
	str	r0, [sp, #40]                   @ 4-byte Spill
	mov	r0, r2
	umull	r6, r2, r7, r11
	str	r2, [sp, #16]                   @ 4-byte Spill
	umull	r2, r12, r7, r9
	mov	r3, r6
	str	r2, [sp, #24]                   @ 4-byte Spill
	umull	r1, r2, r7, r10
	mov	r5, r12
	stmib	sp, {r1, r2}                    @ 8-byte Folded Spill
	ldr	r2, [sp, #32]                   @ 4-byte Reload
	umull	r11, r1, r7, r4
	umlal	r5, r3, r7, r4
	str	r1, [sp]                        @ 4-byte Spill
	ldr	r1, [sp, #12]                   @ 4-byte Reload
	umull	r4, r10, r0, r2
	adcs	r1, r1, r4
	str	r1, [sp, #144]                  @ 4-byte Spill
	ldr	r1, [sp, #20]                   @ 4-byte Reload
	umull	r4, r9, r0, r1
	adcs	r0, r10, r4
	str	r0, [sp, #104]                  @ 4-byte Spill
	adc	r0, r9, #0
	str	r0, [sp, #28]                   @ 4-byte Spill
	adds	r0, r12, r11
	ldr	r11, [sp, #36]                  @ 4-byte Reload
	ldr	r0, [sp]                        @ 4-byte Reload
	adcs	r0, r0, r6
	umull	r0, r10, r7, r1
	umull	r4, r1, r7, r2
	ldr	r2, [sp, #16]                   @ 4-byte Reload
	ldr	r7, [sp, #4]                    @ 4-byte Reload
	adcs	r9, r2, r7
	ldr	r2, [sp, #8]                    @ 4-byte Reload
	ldr	r7, [sp, #96]                   @ 4-byte Reload
	adcs	r4, r2, r4
	ldr	r2, [sp, #136]                  @ 4-byte Reload
	adcs	r1, r1, r0
	ldr	r0, [sp, #24]                   @ 4-byte Reload
	str	r2, [r11]
	adc	r2, r10, #0
	adds	r10, r0, r7
	ldr	r7, [sp, #92]                   @ 4-byte Reload
	ldr	r0, [sp, #80]                   @ 4-byte Reload
	adcs	r5, r5, r7
	ldr	r7, [sp, #88]                   @ 4-byte Reload
	adcs	r3, r3, r7
	ldr	r7, [sp, #84]                   @ 4-byte Reload
	adcs	r7, r9, r7
	adcs	r4, r4, r0
	ldr	r0, [sp, #76]                   @ 4-byte Reload
	adcs	r6, r1, r0
	ldr	r0, [sp, #44]                   @ 4-byte Reload
	adc	r2, r2, #0
	adds	r9, r0, r5
	ldr	r0, [sp, #40]                   @ 4-byte Reload
	adcs	r3, r8, r3
	ldr	r5, [sp, #72]                   @ 4-byte Reload
	adcs	r1, lr, r7
	adcs	r7, r0, r4
	ldr	r0, [sp, #144]                  @ 4-byte Reload
	adcs	r0, r0, r6
	ldr	r6, [sp, #104]                  @ 4-byte Reload
	adcs	r2, r6, r2
	ldr	r6, [sp, #28]                   @ 4-byte Reload
	adc	r4, r6, #0
	adds	r3, r5, r3
	ldr	r5, [sp, #48]                   @ 4-byte Reload
	adcs	r1, r5, r1
	ldr	r5, [sp, #52]                   @ 4-byte Reload
	adcs	r7, r5, r7
	ldr	r5, [sp, #68]                   @ 4-byte Reload
	adcs	r0, r5, r0
	ldr	r5, [sp, #64]                   @ 4-byte Reload
	adcs	r12, r5, r2
	ldr	r2, [sp, #60]                   @ 4-byte Reload
	adcs	r4, r2, r4
	ldr	r2, [sp, #56]                   @ 4-byte Reload
	adc	r5, r2, #0
	ldr	r2, [sp, #120]                  @ 4-byte Reload
	adds	r1, r2, r1
	ldr	r2, [sp, #100]                  @ 4-byte Reload
	adcs	r7, r2, r7
	ldr	r2, [sp, #108]                  @ 4-byte Reload
	adcs	r0, r2, r0
	ldr	r2, [sp, #140]                  @ 4-byte Reload
	stmib	r11, {r2, r10}
	str	r0, [r11, #28]
	ldr	r0, [sp, #132]                  @ 4-byte Reload
	str	r1, [r11, #20]
	ldr	r1, [sp, #128]                  @ 4-byte Reload
	adcs	r0, r0, r12
	ldr	r2, [sp, #116]                  @ 4-byte Reload
	add	r12, r11, #32
	adcs	r1, r1, r4
	str	r3, [r11, #16]
	ldr	r3, [sp, #112]                  @ 4-byte Reload
	adcs	r2, r2, r5
	str	r9, [r11, #12]
	str	r7, [r11, #24]
	adc	r3, r3, #0
	stm	r12, {r0, r1, r2, r3}
	add	sp, sp, #148
	pop	{r4, r5, r6, r7, r8, r9, r10, r11, lr}
	mov	pc, lr
.Lfunc_end7:
	.size	mcl_fpDbl_mulPre6L, .Lfunc_end7-mcl_fpDbl_mulPre6L
	.cantunwind
	.fnend
                                        @ -- End function
	.globl	mcl_fpDbl_sqrPre6L              @ -- Begin function mcl_fpDbl_sqrPre6L
	.p2align	2
	.type	mcl_fpDbl_sqrPre6L,%function
	.code	32                              @ @mcl_fpDbl_sqrPre6L
mcl_fpDbl_sqrPre6L:
	.fnstart
@ %bb.0:
	.save	{r4, r5, r6, r7, r8, r9, r10, r11, lr}
	push	{r4, r5, r6, r7, r8, r9, r10, r11, lr}
	.pad	#152
	sub	sp, sp, #152
	mov	r5, r0
	ldr	r9, [r1]
	ldmib	r1, {r0, lr}
	ldr	r2, [r1, #20]
	ldr	r12, [r1, #12]
	ldr	r3, [r1, #16]
	umull	r6, r7, r2, r0
	umull	r4, r1, r2, r9
	str	r6, [sp, #60]                   @ 4-byte Spill
	str	r7, [sp, #64]                   @ 4-byte Spill
	str	r4, [sp, #132]                  @ 4-byte Spill
	adds	r4, r1, r6
	str	r1, [sp, #124]                  @ 4-byte Spill
	umull	r4, r1, r2, lr
	str	r4, [sp, #148]                  @ 4-byte Spill
	adcs	r4, r7, r4
	umull	r7, r10, r2, r3
	str	r1, [sp, #44]                   @ 4-byte Spill
	umull	r4, r6, r2, r12
	str	r4, [sp, #140]                  @ 4-byte Spill
	adcs	r4, r1, r4
	str	r4, [sp, #112]                  @ 4-byte Spill
	adcs	r4, r6, r7
	str	r4, [sp, #108]                  @ 4-byte Spill
	umull	r4, r1, r2, r2
	str	r6, [sp, #116]                  @ 4-byte Spill
	umull	r6, r8, r3, r0
	adcs	r4, r10, r4
	str	r4, [sp, #104]                  @ 4-byte Spill
	adc	r4, r1, #0
	str	r4, [sp, #100]                  @ 4-byte Spill
	umull	r4, r1, r3, r9
	str	r6, [sp, #36]                   @ 4-byte Spill
	str	r8, [sp, #24]                   @ 4-byte Spill
	str	r4, [sp, #128]                  @ 4-byte Spill
	str	r1, [sp, #120]                  @ 4-byte Spill
	adds	r4, r1, r6
	umull	r1, r6, r3, lr
	str	r1, [sp, #136]                  @ 4-byte Spill
	adcs	r4, r8, r1
	umull	r8, r11, r3, r3
	str	r6, [sp, #48]                   @ 4-byte Spill
	umull	r4, r1, r3, r12
	adcs	r6, r6, r4
	str	r6, [sp, #96]                   @ 4-byte Spill
	adcs	r6, r1, r8
	str	r6, [sp, #92]                   @ 4-byte Spill
	adcs	r6, r11, r7
	str	r6, [sp, #88]                   @ 4-byte Spill
	adc	r6, r10, #0
	umull	r8, r10, r12, r0
	str	r6, [sp, #84]                   @ 4-byte Spill
	umull	r7, r6, r12, r9
	str	r8, [sp, #32]                   @ 4-byte Spill
	str	r10, [sp, #28]                  @ 4-byte Spill
	str	r7, [sp, #40]                   @ 4-byte Spill
	str	r6, [sp, #16]                   @ 4-byte Spill
	adds	r7, r6, r8
	umull	r6, r8, r12, lr
	str	r6, [sp, #144]                  @ 4-byte Spill
	adcs	r7, r10, r6
	mov	r10, r6
	umull	r7, r6, r12, r12
	adcs	r7, r8, r7
	str	r7, [sp, #80]                   @ 4-byte Spill
	adcs	r4, r6, r4
	str	r4, [sp, #76]                   @ 4-byte Spill
	ldr	r4, [sp, #140]                  @ 4-byte Reload
	adcs	r1, r1, r4
	str	r1, [sp, #72]                   @ 4-byte Spill
	ldr	r1, [sp, #116]                  @ 4-byte Reload
	umull	r4, r7, lr, r0
	adc	r1, r1, #0
	str	r1, [sp, #68]                   @ 4-byte Spill
	umull	r6, r1, lr, r9
	str	r7, [sp]                        @ 4-byte Spill
	str	r6, [sp, #116]                  @ 4-byte Spill
	adds	r6, r1, r4
	str	r1, [sp, #8]                    @ 4-byte Spill
	umull	r1, r6, lr, lr
	str	r1, [sp, #140]                  @ 4-byte Spill
	adcs	r11, r7, r1
	ldr	r11, [sp, #136]                 @ 4-byte Reload
	adcs	r1, r6, r10
	str	r1, [sp, #56]                   @ 4-byte Spill
	adcs	r1, r8, r11
	str	r1, [sp, #52]                   @ 4-byte Spill
	ldr	r1, [sp, #148]                  @ 4-byte Reload
	umull	r8, r10, r0, r9
	ldr	r6, [sp, #48]                   @ 4-byte Reload
	adcs	r6, r6, r1
	str	r6, [sp, #48]                   @ 4-byte Spill
	ldr	r6, [sp, #44]                   @ 4-byte Reload
	str	r8, [sp, #12]                   @ 4-byte Spill
	adc	r6, r6, #0
	str	r6, [sp, #44]                   @ 4-byte Spill
	umull	r7, r6, r0, r0
	str	r7, [sp, #4]                    @ 4-byte Spill
	str	r6, [sp, #20]                   @ 4-byte Spill
	ldr	r6, [sp, #4]                    @ 4-byte Reload
	ldr	r7, [sp]                        @ 4-byte Reload
	adds	r6, r10, r6
	ldr	r6, [sp, #20]                   @ 4-byte Reload
	adcs	r6, r6, r4
	ldr	r6, [sp, #32]                   @ 4-byte Reload
	adcs	r6, r7, r6
	str	r6, [sp, #32]                   @ 4-byte Spill
	ldr	r6, [sp, #36]                   @ 4-byte Reload
	ldr	r7, [sp, #28]                   @ 4-byte Reload
	adcs	r6, r7, r6
	str	r6, [sp, #28]                   @ 4-byte Spill
	ldr	r6, [sp, #60]                   @ 4-byte Reload
	ldr	r7, [sp, #24]                   @ 4-byte Reload
	adcs	r6, r7, r6
	str	r6, [sp, #24]                   @ 4-byte Spill
	ldr	r6, [sp, #124]                  @ 4-byte Reload
	mov	r7, r10
	umlal	r7, r4, r0, r0
	umlal	r6, r1, r2, r0
	str	r1, [sp, #148]                  @ 4-byte Spill
	ldr	r1, [sp, #120]                  @ 4-byte Reload
	str	r6, [sp, #60]                   @ 4-byte Spill
	umlal	r1, r11, r3, r0
	ldr	r3, [sp, #8]                    @ 4-byte Reload
	mov	r8, r3
	str	r11, [sp, #136]                 @ 4-byte Spill
	ldr	r11, [sp, #16]                  @ 4-byte Reload
	str	r1, [sp, #36]                   @ 4-byte Spill
	ldr	r1, [sp, #144]                  @ 4-byte Reload
	mov	r2, r11
	umlal	r2, r1, r12, r0
	ldr	r12, [sp, #116]                 @ 4-byte Reload
	str	r1, [sp, #144]                  @ 4-byte Spill
	ldr	r1, [sp, #140]                  @ 4-byte Reload
	str	r2, [sp, #20]                   @ 4-byte Spill
	umlal	r8, r1, lr, r0
	ldr	lr, [sp, #12]                   @ 4-byte Reload
	str	r1, [sp, #140]                  @ 4-byte Spill
	umull	r1, r2, r9, r9
	str	r1, [sp, #4]                    @ 4-byte Spill
	mov	r1, r12
	mov	r6, r2
	umlal	r6, r1, r0, r9
	ldr	r0, [sp, #64]                   @ 4-byte Reload
	adc	r0, r0, #0
	adds	r2, r2, lr
	str	r0, [sp, #64]                   @ 4-byte Spill
	adcs	r2, r10, r12
	ldr	r12, [sp, #40]                  @ 4-byte Reload
	ldr	r0, [sp, #128]                  @ 4-byte Reload
	adcs	r9, r3, r12
	ldr	r2, [sp, #120]                  @ 4-byte Reload
	adcs	r10, r11, r0
	ldr	r0, [sp, #132]                  @ 4-byte Reload
	adcs	r3, r2, r0
	ldr	r0, [sp, #124]                  @ 4-byte Reload
	adc	r0, r0, #0
	adds	r11, lr, r6
	adcs	r2, r7, r1
	ldr	r1, [sp, #4]                    @ 4-byte Reload
	str	r1, [r5]
	adcs	r1, r4, r9
	ldr	r4, [sp, #32]                   @ 4-byte Reload
	ldr	r6, [sp, #28]                   @ 4-byte Reload
	adcs	r7, r4, r10
	str	r11, [r5, #4]
	adcs	r6, r6, r3
	ldr	r3, [sp, #24]                   @ 4-byte Reload
	adcs	r0, r3, r0
	ldr	r3, [sp, #64]                   @ 4-byte Reload
	adc	r4, r3, #0
	ldr	r3, [sp, #116]                  @ 4-byte Reload
	adds	r9, r3, r2
	ldr	r2, [sp, #20]                   @ 4-byte Reload
	adcs	lr, r8, r1
	ldr	r1, [sp, #140]                  @ 4-byte Reload
	str	r9, [r5, #8]
	adcs	r3, r1, r7
	ldr	r1, [sp, #56]                   @ 4-byte Reload
	adcs	r7, r1, r6
	ldr	r1, [sp, #52]                   @ 4-byte Reload
	ldr	r6, [sp, #128]                  @ 4-byte Reload
	adcs	r0, r1, r0
	ldr	r1, [sp, #48]                   @ 4-byte Reload
	adcs	r1, r1, r4
	ldr	r4, [sp, #44]                   @ 4-byte Reload
	adc	r4, r4, #0
	adds	r8, r12, lr
	adcs	r3, r2, r3
	ldr	r2, [sp, #144]                  @ 4-byte Reload
	str	r8, [r5, #12]
	adcs	r7, r2, r7
	ldr	r2, [sp, #80]                   @ 4-byte Reload
	adcs	r0, r2, r0
	ldr	r2, [sp, #76]                   @ 4-byte Reload
	adcs	r2, r2, r1
	ldr	r1, [sp, #72]                   @ 4-byte Reload
	adcs	r4, r1, r4
	ldr	r1, [sp, #68]                   @ 4-byte Reload
	adc	r1, r1, #0
	adds	r3, r6, r3
	ldr	r6, [sp, #36]                   @ 4-byte Reload
	str	r3, [r5, #16]
	adcs	r7, r6, r7
	ldr	r6, [sp, #136]                  @ 4-byte Reload
	ldr	r3, [sp, #108]                  @ 4-byte Reload
	adcs	r0, r6, r0
	ldr	r6, [sp, #96]                   @ 4-byte Reload
	adcs	r2, r6, r2
	ldr	r6, [sp, #92]                   @ 4-byte Reload
	adcs	r4, r6, r4
	ldr	r6, [sp, #88]                   @ 4-byte Reload
	adcs	r1, r6, r1
	ldr	r6, [sp, #84]                   @ 4-byte Reload
	adc	r12, r6, #0
	ldr	r6, [sp, #132]                  @ 4-byte Reload
	adds	r7, r6, r7
	ldr	r6, [sp, #60]                   @ 4-byte Reload
	str	r7, [r5, #20]
	adcs	r0, r6, r0
	ldr	r6, [sp, #148]                  @ 4-byte Reload
	str	r0, [r5, #24]
	ldr	r0, [sp, #112]                  @ 4-byte Reload
	adcs	r2, r6, r2
	str	r2, [r5, #28]
	adcs	r0, r0, r4
	adcs	r1, r3, r1
	ldr	r3, [sp, #104]                  @ 4-byte Reload
	adcs	r2, r3, r12
	ldr	r3, [sp, #100]                  @ 4-byte Reload
	add	r12, r5, #32
	adc	r3, r3, #0
	stm	r12, {r0, r1, r2, r3}
	add	sp, sp, #152
	pop	{r4, r5, r6, r7, r8, r9, r10, r11, lr}
	mov	pc, lr
.Lfunc_end8:
	.size	mcl_fpDbl_sqrPre6L, .Lfunc_end8-mcl_fpDbl_sqrPre6L
	.cantunwind
	.fnend
                                        @ -- End function
	.globl	mcl_fp_mont6L                   @ -- Begin function mcl_fp_mont6L
	.p2align	2
	.type	mcl_fp_mont6L,%function
	.code	32                              @ @mcl_fp_mont6L
mcl_fp_mont6L:
	.fnstart
@ %bb.0:
	.save	{r4, r5, r6, r7, r8, r9, r10, r11, lr}
	push	{r4, r5, r6, r7, r8, r9, r10, r11, lr}
	.pad	#112
	sub	sp, sp, #112
	str	r0, [sp, #52]                   @ 4-byte Spill
	mov	r0, r2
	ldr	r7, [r0, #8]
	ldr	lr, [r0, #4]
	ldr	r0, [r0, #12]
	str	r2, [sp, #56]                   @ 4-byte Spill
	str	r0, [sp, #48]                   @ 4-byte Spill
	ldr	r0, [r1]
	ldr	r2, [r2]
	str	r7, [sp, #44]                   @ 4-byte Spill
	ldr	r7, [r1, #4]
	umull	r4, r6, r0, r2
	str	r7, [sp, #104]                  @ 4-byte Spill
	ldr	r7, [r3, #-4]
	str	r0, [sp, #64]                   @ 4-byte Spill
	ldr	r5, [r3, #8]
	str	r4, [sp, #40]                   @ 4-byte Spill
	ldr	r9, [r3]
	mul	r0, r7, r4
	str	r5, [sp, #108]                  @ 4-byte Spill
	ldr	r8, [r3, #4]
	str	r7, [sp, #84]                   @ 4-byte Spill
	ldr	r7, [r1, #20]
	ldr	r12, [r1, #8]
	ldr	r11, [r1, #12]
	umull	r10, r4, r0, r5
	ldr	r1, [r1, #16]
	str	r9, [sp, #80]                   @ 4-byte Spill
	str	r1, [sp, #60]                   @ 4-byte Spill
	str	r7, [sp, #72]                   @ 4-byte Spill
	str	r4, [sp, #32]                   @ 4-byte Spill
	umull	r4, r5, r0, r9
	str	r10, [sp, #12]                  @ 4-byte Spill
	str	r11, [sp, #96]                  @ 4-byte Spill
	str	r12, [sp, #68]                  @ 4-byte Spill
	str	r5, [sp, #8]                    @ 4-byte Spill
	umlal	r5, r10, r0, r8
	str	r4, [sp, #36]                   @ 4-byte Spill
	str	r8, [sp, #88]                   @ 4-byte Spill
	str	r5, [sp, #4]                    @ 4-byte Spill
	umull	r5, r4, r7, r2
	ldr	r7, [sp, #104]                  @ 4-byte Reload
	str	r5, [sp, #92]                   @ 4-byte Spill
	str	r4, [sp, #100]                  @ 4-byte Spill
	umull	r5, r4, r1, r2
	umull	r9, r1, r11, r2
	str	r1, [sp, #76]                   @ 4-byte Spill
	umull	r11, r1, r7, r2
	adds	r7, r6, r11
	umull	r7, r11, r12, r2
	ldr	r12, [r3, #16]
	adcs	r1, r1, r7
	adcs	r1, r11, r9
	str	r1, [sp, #28]                   @ 4-byte Spill
	ldr	r1, [sp, #76]                   @ 4-byte Reload
	ldr	r11, [r3, #12]
	adcs	r1, r1, r5
	str	r1, [sp, #24]                   @ 4-byte Spill
	ldr	r1, [sp, #92]                   @ 4-byte Reload
	str	r11, [sp, #92]                  @ 4-byte Spill
	adcs	r1, r4, r1
	str	r1, [sp, #20]                   @ 4-byte Spill
	ldr	r1, [sp, #100]                  @ 4-byte Reload
	ldr	r4, [sp, #8]                    @ 4-byte Reload
	adc	r1, r1, #0
	str	r1, [sp, #16]                   @ 4-byte Spill
	ldr	r1, [r3, #20]
	umull	r3, r9, r0, r8
	str	r1, [sp, #76]                   @ 4-byte Spill
	str	r12, [sp, #100]                 @ 4-byte Spill
	umull	r8, r5, r0, r1
	ldr	r1, [sp, #12]                   @ 4-byte Reload
	adds	r3, r4, r3
	adcs	r1, r9, r1
	ldr	r4, [sp, #32]                   @ 4-byte Reload
	umull	r1, r3, r0, r11
	adcs	r11, r4, r1
	umull	r9, r1, r0, r12
	ldr	r0, [sp, #104]                  @ 4-byte Reload
	umlal	r6, r7, r0, r2
	ldr	r2, [sp, #40]                   @ 4-byte Reload
	adcs	r12, r3, r9
	adcs	r9, r1, r8
	ldr	r1, [sp, #36]                   @ 4-byte Reload
	adc	r3, r5, #0
	mov	r8, #0
	adds	r2, r1, r2
	ldr	r1, [sp, #4]                    @ 4-byte Reload
	mov	r2, r0
	adcs	r1, r1, r6
	str	r1, [sp, #40]                   @ 4-byte Spill
	adcs	r1, r10, r7
	str	r1, [sp, #36]                   @ 4-byte Spill
	ldr	r1, [sp, #28]                   @ 4-byte Reload
	ldr	r6, [sp, #68]                   @ 4-byte Reload
	adcs	r1, r11, r1
	str	r1, [sp, #32]                   @ 4-byte Spill
	ldr	r1, [sp, #24]                   @ 4-byte Reload
	ldr	r11, [sp, #72]                  @ 4-byte Reload
	adcs	r1, r12, r1
	str	r1, [sp, #28]                   @ 4-byte Spill
	ldr	r1, [sp, #20]                   @ 4-byte Reload
	adcs	r1, r9, r1
	str	r1, [sp, #24]                   @ 4-byte Spill
	ldr	r1, [sp, #16]                   @ 4-byte Reload
	umull	r4, r9, lr, r11
	adcs	r1, r3, r1
	str	r1, [sp, #20]                   @ 4-byte Spill
	adc	r1, r8, #0
	str	r1, [sp, #16]                   @ 4-byte Spill
	umull	r3, r5, lr, r0
	ldr	r1, [sp, #96]                   @ 4-byte Reload
	ldr	r0, [sp, #64]                   @ 4-byte Reload
	umull	r12, r7, lr, r1
	umull	r10, r1, lr, r0
	adds	r3, r1, r3
	umull	r0, r3, lr, r6
	adcs	r5, r5, r0
	umlal	r1, r0, lr, r2
	adcs	r8, r3, r12
	ldr	r12, [sp, #60]                  @ 4-byte Reload
	ldr	r2, [sp, #40]                   @ 4-byte Reload
	umull	r3, r5, lr, r12
	adcs	r3, r7, r3
	adcs	r5, r5, r4
	adc	r6, r9, #0
	adds	r7, r2, r10
	ldr	r2, [sp, #36]                   @ 4-byte Reload
	ldr	r10, [sp, #76]                  @ 4-byte Reload
	adcs	r9, r2, r1
	ldr	r1, [sp, #32]                   @ 4-byte Reload
	adcs	r0, r1, r0
	str	r0, [sp, #40]                   @ 4-byte Spill
	ldr	r0, [sp, #28]                   @ 4-byte Reload
	ldr	r1, [sp, #84]                   @ 4-byte Reload
	adcs	r0, r0, r8
	str	r0, [sp, #36]                   @ 4-byte Spill
	ldr	r0, [sp, #24]                   @ 4-byte Reload
	adcs	r0, r0, r3
	str	r0, [sp, #32]                   @ 4-byte Spill
	ldr	r0, [sp, #20]                   @ 4-byte Reload
	adcs	r0, r0, r5
	str	r0, [sp, #28]                   @ 4-byte Spill
	ldr	r0, [sp, #16]                   @ 4-byte Reload
	ldr	r5, [sp, #88]                   @ 4-byte Reload
	adcs	r0, r0, r6
	str	r0, [sp, #24]                   @ 4-byte Spill
	mov	r0, #0
	adc	r0, r0, #0
	str	r0, [sp, #20]                   @ 4-byte Spill
	mul	r0, r1, r7
	ldr	r1, [sp, #108]                  @ 4-byte Reload
	umull	r6, r8, r0, r1
	ldr	r1, [sp, #80]                   @ 4-byte Reload
	umull	r3, r2, r0, r1
	mov	r1, r6
	str	r3, [sp, #16]                   @ 4-byte Spill
	umull	lr, r3, r0, r5
	mov	r4, r2
	umlal	r4, r1, r0, r5
	ldr	r5, [sp, #92]                   @ 4-byte Reload
	adds	r2, r2, lr
	umull	r2, lr, r0, r5
	adcs	r3, r3, r6
	adcs	r8, r8, r2
	ldr	r2, [sp, #100]                  @ 4-byte Reload
	umull	r3, r6, r0, r2
	umull	r5, r2, r0, r10
	adcs	r3, lr, r3
	adcs	r0, r6, r5
	ldr	r6, [sp, #16]                   @ 4-byte Reload
	adc	r2, r2, #0
	adds	r7, r7, r6
	ldr	r6, [sp, #68]                   @ 4-byte Reload
	adcs	r7, r9, r4
	str	r7, [sp, #16]                   @ 4-byte Spill
	ldr	r7, [sp, #40]                   @ 4-byte Reload
	adcs	r1, r7, r1
	str	r1, [sp, #40]                   @ 4-byte Spill
	ldr	r1, [sp, #36]                   @ 4-byte Reload
	ldr	r7, [sp, #104]                  @ 4-byte Reload
	adcs	r1, r1, r8
	str	r1, [sp, #36]                   @ 4-byte Spill
	ldr	r1, [sp, #32]                   @ 4-byte Reload
	ldr	r8, [sp, #64]                   @ 4-byte Reload
	adcs	r1, r1, r3
	str	r1, [sp, #32]                   @ 4-byte Spill
	ldr	r1, [sp, #28]                   @ 4-byte Reload
	ldr	r3, [sp, #44]                   @ 4-byte Reload
	adcs	r0, r1, r0
	str	r0, [sp, #28]                   @ 4-byte Spill
	ldr	r0, [sp, #24]                   @ 4-byte Reload
	adcs	r0, r0, r2
	umull	r2, r1, r3, r11
	str	r0, [sp, #24]                   @ 4-byte Spill
	ldr	r0, [sp, #20]                   @ 4-byte Reload
	str	r1, [sp, #12]                   @ 4-byte Spill
	umull	r9, r1, r3, r12
	adc	r0, r0, #0
	str	r0, [sp, #20]                   @ 4-byte Spill
	str	r2, [sp, #8]                    @ 4-byte Spill
	umull	r11, r0, r3, r8
	str	r1, [sp]                        @ 4-byte Spill
	ldr	r1, [sp, #96]                   @ 4-byte Reload
	umull	r2, r12, r3, r7
	str	r11, [sp, #4]                   @ 4-byte Spill
	umull	r4, r5, r3, r1
	adds	r2, r0, r2
	umull	r1, lr, r3, r6
	adcs	r2, r12, r1
	umlal	r0, r1, r3, r7
	adcs	r2, lr, r4
	adcs	r12, r5, r9
	ldr	r5, [sp, #8]                    @ 4-byte Reload
	ldr	r4, [sp]                        @ 4-byte Reload
	ldr	r3, [sp, #16]                   @ 4-byte Reload
	adcs	r4, r4, r5
	ldr	r5, [sp, #12]                   @ 4-byte Reload
	ldr	r7, [sp, #4]                    @ 4-byte Reload
	adc	r5, r5, #0
	adds	r9, r3, r7
	ldr	r3, [sp, #40]                   @ 4-byte Reload
	ldr	r7, [sp, #88]                   @ 4-byte Reload
	adcs	r0, r3, r0
	str	r0, [sp, #44]                   @ 4-byte Spill
	ldr	r0, [sp, #36]                   @ 4-byte Reload
	adcs	r0, r0, r1
	str	r0, [sp, #40]                   @ 4-byte Spill
	ldr	r0, [sp, #32]                   @ 4-byte Reload
	ldr	r1, [sp, #84]                   @ 4-byte Reload
	adcs	r0, r0, r2
	str	r0, [sp, #36]                   @ 4-byte Spill
	ldr	r0, [sp, #28]                   @ 4-byte Reload
	adcs	r0, r0, r12
	str	r0, [sp, #32]                   @ 4-byte Spill
	ldr	r0, [sp, #24]                   @ 4-byte Reload
	adcs	r0, r0, r4
	str	r0, [sp, #28]                   @ 4-byte Spill
	ldr	r0, [sp, #20]                   @ 4-byte Reload
	adcs	r0, r0, r5
	str	r0, [sp, #24]                   @ 4-byte Spill
	mov	r0, #0
	adc	r0, r0, #0
	str	r0, [sp, #20]                   @ 4-byte Spill
	mul	r0, r1, r9
	ldr	r1, [sp, #108]                  @ 4-byte Reload
	umull	r2, r3, r0, r1
	ldr	r1, [sp, #80]                   @ 4-byte Reload
	str	r3, [sp, #12]                   @ 4-byte Spill
	umull	r3, r4, r0, r1
	mov	r1, r2
	str	r3, [sp, #16]                   @ 4-byte Spill
	umull	r11, r3, r0, r10
	mov	r5, r4
	umlal	r5, r1, r0, r7
	str	r3, [sp]                        @ 4-byte Spill
	ldr	r3, [sp, #100]                  @ 4-byte Reload
	umull	r12, lr, r0, r3
	umull	r10, r3, r0, r7
	ldr	r7, [sp, #92]                   @ 4-byte Reload
	adds	r4, r4, r10
	umull	r4, r10, r0, r7
	adcs	r0, r3, r2
	ldr	r0, [sp, #12]                   @ 4-byte Reload
	adcs	r0, r0, r4
	str	r0, [sp, #8]                    @ 4-byte Spill
	adcs	r0, r10, r12
	str	r0, [sp, #4]                    @ 4-byte Spill
	ldr	r0, [sp]                        @ 4-byte Reload
	adcs	r3, lr, r11
	ldr	r12, [sp, #104]                 @ 4-byte Reload
	adc	r10, r0, #0
	ldr	r0, [sp, #16]                   @ 4-byte Reload
	adds	r7, r9, r0
	ldr	r0, [sp, #48]                   @ 4-byte Reload
	ldr	r7, [sp, #96]                   @ 4-byte Reload
	umull	r4, r11, r0, r12
	umull	r9, r2, r0, r7
	umull	r7, lr, r0, r6
	str	r2, [sp, #12]                   @ 4-byte Spill
	umull	r2, r6, r0, r8
	ldr	r8, [sp, #60]                   @ 4-byte Reload
	str	r2, [sp, #16]                   @ 4-byte Spill
	ldr	r2, [sp, #44]                   @ 4-byte Reload
	adcs	r5, r2, r5
	ldr	r2, [sp, #40]                   @ 4-byte Reload
	adcs	r1, r2, r1
	str	r1, [sp, #44]                   @ 4-byte Spill
	ldr	r1, [sp, #36]                   @ 4-byte Reload
	ldr	r2, [sp, #8]                    @ 4-byte Reload
	adcs	r1, r1, r2
	str	r1, [sp, #40]                   @ 4-byte Spill
	ldr	r1, [sp, #32]                   @ 4-byte Reload
	ldr	r2, [sp, #4]                    @ 4-byte Reload
	adcs	r1, r1, r2
	str	r1, [sp, #36]                   @ 4-byte Spill
	ldr	r1, [sp, #28]                   @ 4-byte Reload
	ldr	r2, [sp, #12]                   @ 4-byte Reload
	adcs	r1, r1, r3
	str	r1, [sp, #32]                   @ 4-byte Spill
	ldr	r1, [sp, #24]                   @ 4-byte Reload
	ldr	r3, [sp, #72]                   @ 4-byte Reload
	adcs	r1, r1, r10
	str	r1, [sp, #28]                   @ 4-byte Spill
	ldr	r1, [sp, #20]                   @ 4-byte Reload
	adc	r10, r1, #0
	adds	r4, r6, r4
	adcs	r4, r11, r7
	umlal	r6, r7, r0, r12
	adcs	lr, lr, r9
	ldr	r11, [sp, #80]                  @ 4-byte Reload
	umull	r1, r4, r0, r8
	adcs	r9, r2, r1
	umull	r2, r1, r0, r3
	ldr	r0, [sp, #16]                   @ 4-byte Reload
	adcs	r2, r4, r2
	adc	r1, r1, #0
	adds	r4, r5, r0
	ldr	r0, [sp, #44]                   @ 4-byte Reload
	adcs	r0, r0, r6
	str	r0, [sp, #48]                   @ 4-byte Spill
	ldr	r0, [sp, #40]                   @ 4-byte Reload
	adcs	r0, r0, r7
	str	r0, [sp, #44]                   @ 4-byte Spill
	ldr	r0, [sp, #36]                   @ 4-byte Reload
	ldr	r7, [sp, #88]                   @ 4-byte Reload
	adcs	r0, r0, lr
	str	r0, [sp, #40]                   @ 4-byte Spill
	ldr	r0, [sp, #32]                   @ 4-byte Reload
	adcs	r0, r0, r9
	str	r0, [sp, #36]                   @ 4-byte Spill
	ldr	r0, [sp, #28]                   @ 4-byte Reload
	ldr	r9, [sp, #92]                   @ 4-byte Reload
	adcs	r0, r0, r2
	str	r0, [sp, #32]                   @ 4-byte Spill
	adcs	r0, r10, r1
	ldr	r10, [sp, #84]                  @ 4-byte Reload
	str	r0, [sp, #28]                   @ 4-byte Spill
	mov	r0, #0
	adc	r0, r0, #0
	str	r0, [sp, #24]                   @ 4-byte Spill
	mul	r0, r10, r4
	ldr	r1, [sp, #108]                  @ 4-byte Reload
	umull	r2, r12, r0, r1
	umull	r1, r6, r0, r11
	umull	lr, r3, r0, r7
	str	r1, [sp, #20]                   @ 4-byte Spill
	mov	r1, r2
	mov	r5, r6
	umlal	r5, r1, r0, r7
	adds	r6, r6, lr
	adcs	r2, r3, r2
	umull	r6, lr, r0, r9
	ldr	r2, [sp, #100]                  @ 4-byte Reload
	adcs	r12, r12, r6
	umull	r3, r6, r0, r2
	adcs	lr, lr, r3
	ldr	r3, [sp, #76]                   @ 4-byte Reload
	umull	r7, r2, r0, r3
	ldr	r3, [sp, #20]                   @ 4-byte Reload
	adcs	r0, r6, r7
	adc	r2, r2, #0
	adds	r7, r4, r3
	ldr	r3, [sp, #48]                   @ 4-byte Reload
	ldr	r7, [sp, #64]                   @ 4-byte Reload
	adcs	r3, r3, r5
	str	r3, [sp, #48]                   @ 4-byte Spill
	ldr	r3, [sp, #44]                   @ 4-byte Reload
	adcs	r1, r3, r1
	str	r1, [sp, #44]                   @ 4-byte Spill
	ldr	r1, [sp, #40]                   @ 4-byte Reload
	adcs	r1, r1, r12
	str	r1, [sp, #40]                   @ 4-byte Spill
	ldr	r1, [sp, #36]                   @ 4-byte Reload
	adcs	r1, r1, lr
	str	r1, [sp, #36]                   @ 4-byte Spill
	ldr	r1, [sp, #32]                   @ 4-byte Reload
	adcs	r0, r1, r0
	str	r0, [sp, #32]                   @ 4-byte Spill
	ldr	r0, [sp, #28]                   @ 4-byte Reload
	ldr	r1, [sp, #104]                  @ 4-byte Reload
	adcs	r0, r0, r2
	str	r0, [sp, #28]                   @ 4-byte Spill
	ldr	r0, [sp, #24]                   @ 4-byte Reload
	adc	r0, r0, #0
	str	r0, [sp, #24]                   @ 4-byte Spill
	ldr	r0, [sp, #56]                   @ 4-byte Reload
	ldr	r4, [r0, #16]
	ldr	r0, [sp, #68]                   @ 4-byte Reload
	umull	r12, lr, r4, r8
	umull	r3, r2, r4, r0
	umull	r8, r0, r4, r7
	ldr	r7, [sp, #96]                   @ 4-byte Reload
	umull	r5, r6, r4, r1
	adds	r5, r0, r5
	adcs	r5, r6, r3
	umlal	r0, r3, r4, r1
	ldr	r1, [sp, #48]                   @ 4-byte Reload
	umull	r5, r6, r4, r7
	ldr	r7, [sp, #72]                   @ 4-byte Reload
	adcs	r2, r2, r5
	adcs	r12, r6, r12
	umull	r5, r6, r4, r7
	adcs	r5, lr, r5
	adc	r6, r6, #0
	adds	r7, r1, r8
	ldr	r1, [sp, #44]                   @ 4-byte Reload
	adcs	r0, r1, r0
	str	r0, [sp, #48]                   @ 4-byte Spill
	ldr	r0, [sp, #40]                   @ 4-byte Reload
	ldr	r1, [sp, #108]                  @ 4-byte Reload
	adcs	r0, r0, r3
	str	r0, [sp, #44]                   @ 4-byte Spill
	ldr	r0, [sp, #36]                   @ 4-byte Reload
	adcs	r0, r0, r2
	str	r0, [sp, #40]                   @ 4-byte Spill
	ldr	r0, [sp, #32]                   @ 4-byte Reload
	adcs	r0, r0, r12
	str	r0, [sp, #36]                   @ 4-byte Spill
	ldr	r0, [sp, #28]                   @ 4-byte Reload
	adcs	r0, r0, r5
	str	r0, [sp, #32]                   @ 4-byte Spill
	ldr	r0, [sp, #24]                   @ 4-byte Reload
	ldr	r5, [sp, #88]                   @ 4-byte Reload
	adcs	r0, r0, r6
	str	r0, [sp, #28]                   @ 4-byte Spill
	mov	r0, #0
	adc	r0, r0, #0
	str	r0, [sp, #24]                   @ 4-byte Spill
	mul	r0, r10, r7
	umull	r8, r2, r0, r11
	ldr	r11, [sp, #64]                  @ 4-byte Reload
	umull	lr, r3, r0, r5
	umull	r6, r12, r0, r1
	mov	r4, r2
	adds	r2, r2, lr
	umull	r2, lr, r0, r9
	adcs	r3, r3, r6
	mov	r1, r6
	umlal	r4, r1, r0, r5
	adcs	r12, r12, r2
	ldr	r2, [sp, #100]                  @ 4-byte Reload
	umull	r3, r6, r0, r2
	adcs	lr, lr, r3
	ldr	r3, [sp, #76]                   @ 4-byte Reload
	umull	r5, r2, r0, r3
	ldr	r3, [sp, #48]                   @ 4-byte Reload
	adcs	r0, r6, r5
	adc	r2, r2, #0
	adds	r7, r7, r8
	adcs	r3, r3, r4
	str	r3, [sp, #48]                   @ 4-byte Spill
	ldr	r3, [sp, #44]                   @ 4-byte Reload
	adcs	r1, r3, r1
	str	r1, [sp, #44]                   @ 4-byte Spill
	ldr	r1, [sp, #40]                   @ 4-byte Reload
	ldr	r3, [sp, #104]                  @ 4-byte Reload
	adcs	r1, r1, r12
	str	r1, [sp, #40]                   @ 4-byte Spill
	ldr	r1, [sp, #36]                   @ 4-byte Reload
	adcs	r1, r1, lr
	str	r1, [sp, #36]                   @ 4-byte Spill
	ldr	r1, [sp, #32]                   @ 4-byte Reload
	adcs	r0, r1, r0
	str	r0, [sp, #32]                   @ 4-byte Spill
	ldr	r0, [sp, #28]                   @ 4-byte Reload
	adcs	r0, r0, r2
	str	r0, [sp, #28]                   @ 4-byte Spill
	ldr	r0, [sp, #24]                   @ 4-byte Reload
	adc	r0, r0, #0
	str	r0, [sp, #24]                   @ 4-byte Spill
	ldr	r0, [sp, #56]                   @ 4-byte Reload
	ldr	r4, [r0, #20]
	ldr	r0, [sp, #72]                   @ 4-byte Reload
	umull	r2, r12, r4, r3
	umull	r9, r1, r4, r0
	ldr	r0, [sp, #60]                   @ 4-byte Reload
	umull	r7, r8, r4, r0
	ldr	r0, [sp, #96]                   @ 4-byte Reload
	str	r1, [sp, #56]                   @ 4-byte Spill
	umull	r5, r6, r4, r0
	ldr	r0, [sp, #68]                   @ 4-byte Reload
	umull	r1, lr, r4, r0
	umull	r10, r0, r4, r11
	ldr	r11, [sp, #100]                 @ 4-byte Reload
	adds	r2, r0, r2
	adcs	r2, r12, r1
	umlal	r0, r1, r4, r3
	adcs	r2, lr, r5
	adcs	r5, r6, r7
	ldr	r6, [sp, #56]                   @ 4-byte Reload
	adcs	r7, r8, r9
	ldr	r3, [sp, #48]                   @ 4-byte Reload
	adc	r6, r6, #0
	ldr	r12, [sp, #88]                  @ 4-byte Reload
	adds	r8, r3, r10
	ldr	r3, [sp, #44]                   @ 4-byte Reload
	ldr	lr, [sp, #76]                   @ 4-byte Reload
	adcs	r0, r3, r0
	str	r0, [sp, #104]                  @ 4-byte Spill
	ldr	r0, [sp, #40]                   @ 4-byte Reload
	adcs	r0, r0, r1
	str	r0, [sp, #96]                   @ 4-byte Spill
	ldr	r0, [sp, #36]                   @ 4-byte Reload
	ldr	r1, [sp, #84]                   @ 4-byte Reload
	adcs	r0, r0, r2
	str	r0, [sp, #72]                   @ 4-byte Spill
	ldr	r0, [sp, #32]                   @ 4-byte Reload
	adcs	r0, r0, r5
	str	r0, [sp, #68]                   @ 4-byte Spill
	ldr	r0, [sp, #28]                   @ 4-byte Reload
	ldr	r5, [sp, #92]                   @ 4-byte Reload
	adcs	r0, r0, r7
	str	r0, [sp, #64]                   @ 4-byte Spill
	ldr	r0, [sp, #24]                   @ 4-byte Reload
	ldr	r7, [sp, #80]                   @ 4-byte Reload
	adcs	r0, r0, r6
	str	r0, [sp, #60]                   @ 4-byte Spill
	mov	r0, #0
	adc	r0, r0, #0
	str	r0, [sp, #56]                   @ 4-byte Spill
	mul	r0, r1, r8
	umull	r3, r4, r0, r7
	umull	r1, r2, r0, r12
	str	r3, [sp, #84]                   @ 4-byte Spill
	ldr	r3, [sp, #108]                  @ 4-byte Reload
	adds	r1, r4, r1
	umull	r6, r1, r0, r3
	adcs	r2, r2, r6
	umlal	r4, r6, r0, r12
	umull	r2, r3, r0, r5
	adcs	r10, r1, r2
	umull	r2, r1, r0, r11
	adcs	r9, r3, r2
	umull	r3, r2, r0, lr
	adcs	r1, r1, r3
	adc	r0, r2, #0
	ldr	r2, [sp, #84]                   @ 4-byte Reload
	adds	r2, r8, r2
	ldr	r2, [sp, #104]                  @ 4-byte Reload
	adcs	r4, r2, r4
	ldr	r2, [sp, #96]                   @ 4-byte Reload
	str	r4, [sp, #104]                  @ 4-byte Spill
	adcs	r5, r2, r6
	ldr	r2, [sp, #72]                   @ 4-byte Reload
	adcs	r3, r2, r10
	ldr	r2, [sp, #68]                   @ 4-byte Reload
	adcs	r8, r2, r9
	ldr	r2, [sp, #64]                   @ 4-byte Reload
	adcs	r9, r2, r1
	ldr	r1, [sp, #60]                   @ 4-byte Reload
	adcs	r0, r1, r0
	ldr	r1, [sp, #56]                   @ 4-byte Reload
	adc	r2, r1, #0
	subs	r10, r4, r7
	ldr	r1, [sp, #108]                  @ 4-byte Reload
	sbcs	r7, r5, r12
	mov	r12, r5
	sbcs	r5, r3, r1
	ldr	r1, [sp, #92]                   @ 4-byte Reload
	sbcs	r6, r8, r1
	sbcs	r1, r9, r11
	sbcs	r4, r0, lr
	sbc	r2, r2, #0
	ands	r2, r2, #1
	movne	r4, r0
	ldr	r0, [sp, #52]                   @ 4-byte Reload
	movne	r1, r9
	movne	r6, r8
	cmp	r2, #0
	str	r1, [r0, #16]
	movne	r5, r3
	ldr	r1, [sp, #104]                  @ 4-byte Reload
	movne	r7, r12
	str	r4, [r0, #20]
	str	r6, [r0, #12]
	movne	r10, r1
	str	r5, [r0, #8]
	str	r7, [r0, #4]
	str	r10, [r0]
	add	sp, sp, #112
	pop	{r4, r5, r6, r7, r8, r9, r10, r11, lr}
	mov	pc, lr
.Lfunc_end9:
	.size	mcl_fp_mont6L, .Lfunc_end9-mcl_fp_mont6L
	.cantunwind
	.fnend
                                        @ -- End function
	.globl	mcl_fp_montNF6L                 @ -- Begin function mcl_fp_montNF6L
	.p2align	2
	.type	mcl_fp_montNF6L,%function
	.code	32                              @ @mcl_fp_montNF6L
mcl_fp_montNF6L:
	.fnstart
@ %bb.0:
	.save	{r4, r5, r6, r7, r8, r9, r10, r11, lr}
	push	{r4, r5, r6, r7, r8, r9, r10, r11, lr}
	.pad	#92
	sub	sp, sp, #92
	str	r0, [sp, #32]                   @ 4-byte Spill
	str	r2, [sp, #36]                   @ 4-byte Spill
	ldm	r2, {r4, r12}
	ldr	r0, [r2, #12]
	ldr	r9, [r2, #8]
	ldr	r2, [r1]
	str	r0, [sp, #28]                   @ 4-byte Spill
	str	r2, [sp, #88]                   @ 4-byte Spill
	ldmib	r1, {r5, r7}
	ldr	r0, [r1, #12]
	mov	r10, r5
	umull	r6, r8, r5, r4
	str	r7, [sp, #56]                   @ 4-byte Spill
	str	r0, [sp, #76]                   @ 4-byte Spill
	umull	r11, r5, r2, r4
	ldr	lr, [r3, #8]
	str	lr, [sp, #40]                   @ 4-byte Spill
	str	r10, [sp, #44]                  @ 4-byte Spill
	adds	r6, r5, r6
	umull	r2, r6, r7, r4
	adcs	r7, r8, r2
	umlal	r5, r2, r10, r4
	umull	r7, r8, r0, r4
	adcs	r0, r6, r7
	ldr	r6, [r1, #16]
	str	r0, [sp, #64]                   @ 4-byte Spill
	str	r6, [sp, #72]                   @ 4-byte Spill
	umull	r7, r0, r6, r4
	ldr	r6, [r3]
	str	r6, [sp, #84]                   @ 4-byte Spill
	adcs	r7, r8, r7
	str	r7, [sp, #60]                   @ 4-byte Spill
	ldr	r7, [r1, #20]
	str	r7, [sp, #80]                   @ 4-byte Spill
	umull	r1, r8, r7, r4
	adcs	r0, r0, r1
	ldr	r1, [r3, #-4]
	str	r0, [sp, #24]                   @ 4-byte Spill
	adc	r0, r8, #0
	str	r0, [sp, #20]                   @ 4-byte Spill
	mul	r0, r1, r11
	str	r1, [sp, #52]                   @ 4-byte Spill
	ldr	r8, [r3, #4]
	str	r8, [sp, #68]                   @ 4-byte Spill
	umull	r1, r7, r0, r6
	str	r7, [sp, #16]                   @ 4-byte Spill
	adds	r1, r11, r1
	umull	r1, r4, r0, r8
	str	r4, [sp, #12]                   @ 4-byte Spill
	adcs	r8, r5, r1
	umull	r5, r11, r0, lr
	ldr	r1, [r3, #12]
	str	r1, [sp, #48]                   @ 4-byte Spill
	adcs	r6, r2, r5
	umull	r5, r7, r0, r1
	ldr	r1, [sp, #64]                   @ 4-byte Reload
	adcs	lr, r1, r5
	ldr	r1, [r3, #16]
	str	r1, [sp, #64]                   @ 4-byte Spill
	umull	r5, r4, r0, r1
	ldr	r1, [sp, #60]                   @ 4-byte Reload
	adcs	r5, r1, r5
	ldr	r1, [r3, #20]
	str	r1, [sp, #60]                   @ 4-byte Spill
	umull	r3, r2, r0, r1
	ldr	r0, [sp, #24]                   @ 4-byte Reload
	ldr	r1, [sp, #20]                   @ 4-byte Reload
	adcs	r0, r0, r3
	adc	r3, r1, #0
	ldr	r1, [sp, #16]                   @ 4-byte Reload
	adds	r1, r8, r1
	str	r1, [sp, #24]                   @ 4-byte Spill
	ldr	r1, [sp, #12]                   @ 4-byte Reload
	ldr	r8, [sp, #56]                   @ 4-byte Reload
	adcs	r1, r6, r1
	str	r1, [sp, #20]                   @ 4-byte Spill
	adcs	r11, lr, r11
	ldr	lr, [sp, #80]                   @ 4-byte Reload
	adcs	r1, r5, r7
	str	r1, [sp, #16]                   @ 4-byte Spill
	adcs	r0, r0, r4
	str	r0, [sp, #12]                   @ 4-byte Spill
	adc	r0, r3, r2
	str	r0, [sp, #8]                    @ 4-byte Spill
	ldr	r0, [sp, #88]                   @ 4-byte Reload
	umull	r3, r6, r12, r10
	ldr	r5, [sp, #76]                   @ 4-byte Reload
	umull	r7, r1, r12, r0
	adds	r3, r1, r3
	umull	r2, r3, r12, r8
	adcs	r6, r6, r2
	umlal	r1, r2, r12, r10
	ldr	r10, [sp, #68]                  @ 4-byte Reload
	umull	r6, r0, r12, r5
	ldr	r5, [sp, #72]                   @ 4-byte Reload
	adcs	r4, r3, r6
	umull	r6, r3, r12, r5
	adcs	r5, r0, r6
	umull	r6, r0, r12, lr
	ldr	r12, [sp, #60]                  @ 4-byte Reload
	adcs	r3, r3, r6
	ldr	r6, [sp, #24]                   @ 4-byte Reload
	adc	r0, r0, #0
	adds	r7, r7, r6
	ldr	r6, [sp, #20]                   @ 4-byte Reload
	adcs	r1, r1, r6
	ldr	r6, [sp, #16]                   @ 4-byte Reload
	adcs	r2, r2, r11
	adcs	r6, r4, r6
	ldr	r4, [sp, #12]                   @ 4-byte Reload
	adcs	r11, r5, r4
	ldr	r5, [sp, #8]                    @ 4-byte Reload
	adcs	r3, r3, r5
	str	r3, [sp, #24]                   @ 4-byte Spill
	adc	r0, r0, #0
	str	r0, [sp, #20]                   @ 4-byte Spill
	ldr	r0, [sp, #52]                   @ 4-byte Reload
	ldr	r3, [sp, #84]                   @ 4-byte Reload
	mul	r4, r0, r7
	umull	r0, r5, r4, r3
	str	r5, [sp, #16]                   @ 4-byte Spill
	adds	r0, r7, r0
	ldr	r5, [sp, #16]                   @ 4-byte Reload
	umull	r0, r3, r4, r10
	str	r3, [sp, #12]                   @ 4-byte Spill
	adcs	r3, r1, r0
	ldr	r0, [sp, #40]                   @ 4-byte Reload
	umull	r1, r7, r4, r0
	ldr	r0, [sp, #48]                   @ 4-byte Reload
	str	r7, [sp, #8]                    @ 4-byte Spill
	adcs	r1, r2, r1
	umull	r2, r7, r4, r0
	str	r7, [sp, #4]                    @ 4-byte Spill
	ldr	r7, [sp, #64]                   @ 4-byte Reload
	adcs	r2, r6, r2
	umull	r6, r0, r4, r7
	adcs	r6, r11, r6
	umull	r7, r11, r4, r12
	ldr	r4, [sp, #24]                   @ 4-byte Reload
	adcs	r4, r4, r7
	ldr	r7, [sp, #20]                   @ 4-byte Reload
	adc	r7, r7, #0
	adds	r3, r3, r5
	str	r3, [sp, #24]                   @ 4-byte Spill
	ldr	r3, [sp, #12]                   @ 4-byte Reload
	adcs	r1, r1, r3
	str	r1, [sp, #20]                   @ 4-byte Spill
	ldr	r1, [sp, #8]                    @ 4-byte Reload
	ldr	r3, [sp, #72]                   @ 4-byte Reload
	adcs	r1, r2, r1
	str	r1, [sp, #16]                   @ 4-byte Spill
	ldr	r1, [sp, #4]                    @ 4-byte Reload
	adcs	r1, r6, r1
	ldr	r6, [sp, #44]                   @ 4-byte Reload
	adcs	r0, r4, r0
	str	r0, [sp, #8]                    @ 4-byte Spill
	ldr	r0, [sp, #88]                   @ 4-byte Reload
	adc	r11, r7, r11
	str	r1, [sp, #12]                   @ 4-byte Spill
	umull	r5, r4, r9, r6
	umull	r12, r1, r9, r0
	ldr	r0, [sp, #76]                   @ 4-byte Reload
	adds	r5, r1, r5
	umull	r2, r5, r9, r8
	ldr	r8, [sp, #52]                   @ 4-byte Reload
	adcs	r4, r4, r2
	umlal	r1, r2, r9, r6
	ldr	r6, [sp, #20]                   @ 4-byte Reload
	umull	r4, r7, r9, r0
	adcs	r4, r5, r4
	umull	r5, r0, r9, r3
	adcs	r5, r7, r5
	umull	r7, r3, r9, lr
	ldr	lr, [sp, #60]                   @ 4-byte Reload
	adcs	r0, r0, r7
	ldr	r7, [sp, #24]                   @ 4-byte Reload
	adc	r3, r3, #0
	adds	r7, r12, r7
	adcs	r1, r1, r6
	ldr	r6, [sp, #16]                   @ 4-byte Reload
	adcs	r2, r2, r6
	ldr	r6, [sp, #12]                   @ 4-byte Reload
	adcs	r6, r4, r6
	ldr	r4, [sp, #8]                    @ 4-byte Reload
	adcs	r9, r5, r4
	mul	r4, r8, r7
	adcs	r0, r0, r11
	str	r0, [sp, #24]                   @ 4-byte Spill
	adc	r0, r3, #0
	ldr	r3, [sp, #84]                   @ 4-byte Reload
	str	r0, [sp, #20]                   @ 4-byte Spill
	ldr	r11, [sp, #40]                  @ 4-byte Reload
	umull	r0, r5, r4, r3
	str	r5, [sp, #16]                   @ 4-byte Spill
	adds	r0, r7, r0
	ldr	r5, [sp, #16]                   @ 4-byte Reload
	umull	r0, r3, r4, r10
	ldr	r10, [sp, #48]                  @ 4-byte Reload
	str	r3, [sp, #12]                   @ 4-byte Spill
	adcs	r0, r1, r0
	umull	r1, r3, r4, r11
	str	r3, [sp, #8]                    @ 4-byte Spill
	adcs	r1, r2, r1
	umull	r2, r12, r4, r10
	ldr	r3, [sp, #64]                   @ 4-byte Reload
	adcs	r2, r6, r2
	umull	r6, r7, r4, r3
	adcs	r6, r9, r6
	umull	r3, r9, r4, lr
	ldr	r4, [sp, #24]                   @ 4-byte Reload
	adcs	r3, r4, r3
	ldr	r4, [sp, #20]                   @ 4-byte Reload
	adc	r4, r4, #0
	adds	r0, r0, r5
	str	r0, [sp, #24]                   @ 4-byte Spill
	ldr	r0, [sp, #12]                   @ 4-byte Reload
	adcs	r0, r1, r0
	str	r0, [sp, #20]                   @ 4-byte Spill
	ldr	r0, [sp, #8]                    @ 4-byte Reload
	ldr	r1, [sp, #56]                   @ 4-byte Reload
	adcs	r0, r2, r0
	str	r0, [sp, #16]                   @ 4-byte Spill
	adcs	r0, r6, r12
	str	r0, [sp, #12]                   @ 4-byte Spill
	adcs	r0, r3, r7
	str	r0, [sp, #8]                    @ 4-byte Spill
	adc	r0, r4, r9
	str	r0, [sp, #4]                    @ 4-byte Spill
	ldr	r0, [sp, #28]                   @ 4-byte Reload
	ldr	r12, [sp, #76]                  @ 4-byte Reload
	ldr	r9, [sp, #80]                   @ 4-byte Reload
	umull	r3, lr, r0, r1
	ldr	r1, [sp, #88]                   @ 4-byte Reload
	umull	r4, r2, r0, r1
	mov	r5, r3
	str	r4, [sp]                        @ 4-byte Spill
	ldr	r4, [sp, #44]                   @ 4-byte Reload
	mov	r1, r2
	umull	r6, r7, r0, r4
	umlal	r1, r5, r0, r4
	adds	r2, r2, r6
	adcs	r2, r7, r3
	umull	r2, r3, r0, r12
	adcs	r2, lr, r2
	ldr	lr, [sp, #72]                   @ 4-byte Reload
	umull	r4, r6, r0, lr
	adcs	r3, r3, r4
	umull	r4, r7, r0, r9
	ldr	r0, [sp, #24]                   @ 4-byte Reload
	ldr	r9, [sp, #64]                   @ 4-byte Reload
	adcs	r4, r6, r4
	adc	r6, r7, #0
	ldr	r7, [sp]                        @ 4-byte Reload
	adds	r0, r7, r0
	ldr	r7, [sp, #20]                   @ 4-byte Reload
	adcs	r1, r1, r7
	ldr	r7, [sp, #16]                   @ 4-byte Reload
	adcs	r7, r5, r7
	ldr	r5, [sp, #12]                   @ 4-byte Reload
	adcs	r2, r2, r5
	ldr	r5, [sp, #8]                    @ 4-byte Reload
	adcs	r3, r3, r5
	str	r3, [sp, #16]                   @ 4-byte Spill
	ldr	r3, [sp, #4]                    @ 4-byte Reload
	adcs	r3, r4, r3
	mul	r4, r8, r0
	ldr	r8, [sp, #84]                   @ 4-byte Reload
	str	r3, [sp, #28]                   @ 4-byte Spill
	adc	r3, r6, #0
	str	r3, [sp, #24]                   @ 4-byte Spill
	umull	r5, r3, r4, r8
	str	r3, [sp, #20]                   @ 4-byte Spill
	ldr	r3, [sp, #68]                   @ 4-byte Reload
	adds	r0, r0, r5
	umull	r0, r5, r4, r3
	str	r5, [sp, #12]                   @ 4-byte Spill
	adcs	r0, r1, r0
	umull	r1, r3, r4, r11
	str	r3, [sp, #8]                    @ 4-byte Spill
	adcs	r1, r7, r1
	umull	r7, r3, r4, r10
	ldr	r10, [sp, #60]                  @ 4-byte Reload
	umull	r6, r11, r4, r10
	str	r3, [sp, #4]                    @ 4-byte Spill
	adcs	r2, r2, r7
	ldr	r3, [sp, #16]                   @ 4-byte Reload
	umull	r7, r5, r4, r9
	ldr	r4, [sp, #28]                   @ 4-byte Reload
	adcs	r7, r3, r7
	ldr	r3, [sp, #20]                   @ 4-byte Reload
	adcs	r4, r4, r6
	ldr	r6, [sp, #24]                   @ 4-byte Reload
	adc	r6, r6, #0
	adds	r0, r0, r3
	str	r0, [sp, #28]                   @ 4-byte Spill
	ldr	r0, [sp, #12]                   @ 4-byte Reload
	adcs	r0, r1, r0
	str	r0, [sp, #24]                   @ 4-byte Spill
	ldr	r0, [sp, #8]                    @ 4-byte Reload
	ldr	r1, [sp, #88]                   @ 4-byte Reload
	adcs	r0, r2, r0
	str	r0, [sp, #20]                   @ 4-byte Spill
	ldr	r0, [sp, #4]                    @ 4-byte Reload
	adcs	r0, r7, r0
	str	r0, [sp, #16]                   @ 4-byte Spill
	adcs	r0, r4, r5
	str	r0, [sp, #12]                   @ 4-byte Spill
	adc	r0, r6, r11
	str	r0, [sp, #8]                    @ 4-byte Spill
	ldr	r0, [sp, #36]                   @ 4-byte Reload
	ldr	r7, [sp, #44]                   @ 4-byte Reload
	ldr	r5, [r0, #16]
	umull	r11, r2, r5, r1
	ldr	r1, [sp, #56]                   @ 4-byte Reload
	umull	r4, r0, r5, r7
	adds	r4, r2, r4
	umull	r3, r4, r5, r1
	adcs	r0, r0, r3
	umlal	r2, r3, r5, r7
	ldr	r7, [sp, #80]                   @ 4-byte Reload
	umull	r0, r6, r5, r12
	adcs	r12, r4, r0
	umull	r4, r1, r5, lr
	adcs	r4, r6, r4
	umull	r6, r0, r5, r7
	ldr	r7, [sp, #28]                   @ 4-byte Reload
	adcs	r1, r1, r6
	adc	r0, r0, #0
	adds	r6, r11, r7
	ldr	r7, [sp, #24]                   @ 4-byte Reload
	adcs	r2, r2, r7
	ldr	r7, [sp, #20]                   @ 4-byte Reload
	adcs	r3, r3, r7
	ldr	r7, [sp, #16]                   @ 4-byte Reload
	adcs	r5, r12, r7
	ldr	r7, [sp, #12]                   @ 4-byte Reload
	adcs	r7, r4, r7
	str	r7, [sp, #16]                   @ 4-byte Spill
	ldr	r7, [sp, #8]                    @ 4-byte Reload
	adcs	r1, r1, r7
	str	r1, [sp, #28]                   @ 4-byte Spill
	adc	r0, r0, #0
	str	r0, [sp, #24]                   @ 4-byte Spill
	ldr	r0, [sp, #52]                   @ 4-byte Reload
	mul	r4, r0, r6
	umull	r0, r1, r4, r8
	ldr	r8, [sp, #40]                   @ 4-byte Reload
	str	r1, [sp, #20]                   @ 4-byte Spill
	ldr	r1, [sp, #68]                   @ 4-byte Reload
	adds	r0, r6, r0
	ldr	r7, [sp, #20]                   @ 4-byte Reload
	umull	r0, r11, r4, r1
	ldr	r1, [sp, #48]                   @ 4-byte Reload
	adcs	r0, r2, r0
	umull	r2, lr, r4, r8
	adcs	r2, r3, r2
	umull	r3, r12, r4, r1
	ldr	r1, [sp, #16]                   @ 4-byte Reload
	adcs	r3, r5, r3
	umull	r5, r6, r4, r9
	adcs	r5, r1, r5
	umull	r1, r9, r4, r10
	ldr	r4, [sp, #28]                   @ 4-byte Reload
	adcs	r1, r4, r1
	ldr	r4, [sp, #24]                   @ 4-byte Reload
	adc	r4, r4, #0
	adds	r0, r0, r7
	adcs	r10, r2, r11
	str	r0, [sp, #28]                   @ 4-byte Spill
	adcs	r11, r3, lr
	ldr	r7, [sp, #44]                   @ 4-byte Reload
	adcs	r0, r5, r12
	str	r0, [sp, #24]                   @ 4-byte Spill
	adcs	r0, r1, r6
	str	r0, [sp, #20]                   @ 4-byte Spill
	adc	r0, r4, r9
	str	r0, [sp, #16]                   @ 4-byte Spill
	ldr	r0, [sp, #36]                   @ 4-byte Reload
	ldr	r5, [r0, #20]
	ldr	r0, [sp, #56]                   @ 4-byte Reload
	umull	r6, r1, r5, r0
	ldr	r0, [sp, #88]                   @ 4-byte Reload
	umull	lr, r3, r5, r0
	umull	r12, r0, r5, r7
	mov	r4, r6
	mov	r2, r3
	umlal	r2, r4, r5, r7
	ldr	r7, [sp, #76]                   @ 4-byte Reload
	adds	r3, r3, r12
	adcs	r0, r0, r6
	umull	r0, r3, r5, r7
	ldr	r7, [sp, #80]                   @ 4-byte Reload
	adcs	r12, r1, r0
	ldr	r0, [sp, #72]                   @ 4-byte Reload
	umull	r1, r6, r5, r0
	adcs	r1, r3, r1
	umull	r3, r0, r5, r7
	ldr	r5, [sp, #28]                   @ 4-byte Reload
	adcs	r3, r6, r3
	adc	r0, r0, #0
	adds	r6, lr, r5
	adcs	r7, r2, r10
	ldr	r2, [sp, #24]                   @ 4-byte Reload
	adcs	r9, r4, r11
	ldr	r5, [sp, #84]                   @ 4-byte Reload
	adcs	r10, r12, r2
	ldr	r2, [sp, #20]                   @ 4-byte Reload
	ldr	lr, [sp, #48]                   @ 4-byte Reload
	adcs	r12, r1, r2
	ldr	r1, [sp, #16]                   @ 4-byte Reload
	ldr	r2, [sp, #68]                   @ 4-byte Reload
	adcs	r1, r3, r1
	str	r1, [sp, #88]                   @ 4-byte Spill
	adc	r0, r0, #0
	str	r0, [sp, #80]                   @ 4-byte Spill
	ldr	r0, [sp, #52]                   @ 4-byte Reload
	mul	r4, r0, r6
	umull	r0, r1, r4, r5
	str	r1, [sp, #76]                   @ 4-byte Spill
	adds	r0, r6, r0
	umull	r6, r0, r4, r8
	str	r0, [sp, #72]                   @ 4-byte Spill
	umull	r3, r0, r4, r2
	str	r0, [sp, #56]                   @ 4-byte Spill
	adcs	r11, r7, r3
	umull	r3, r0, r4, lr
	adcs	r1, r9, r6
	str	r0, [sp, #52]                   @ 4-byte Spill
	adcs	r10, r10, r3
	ldr	r3, [sp, #64]                   @ 4-byte Reload
	umull	r7, r0, r4, r3
	str	r0, [sp, #44]                   @ 4-byte Spill
	adcs	r9, r12, r7
	ldr	r12, [sp, #60]                  @ 4-byte Reload
	ldr	r7, [sp, #56]                   @ 4-byte Reload
	umull	r6, r0, r4, r12
	ldr	r4, [sp, #88]                   @ 4-byte Reload
	str	r0, [sp, #36]                   @ 4-byte Spill
	adcs	r6, r4, r6
	ldr	r4, [sp, #80]                   @ 4-byte Reload
	ldr	r0, [sp, #76]                   @ 4-byte Reload
	adc	r4, r4, #0
	adds	r0, r11, r0
	str	r0, [sp, #88]                   @ 4-byte Spill
	adcs	r1, r1, r7
	ldr	r7, [sp, #72]                   @ 4-byte Reload
	str	r1, [sp, #80]                   @ 4-byte Spill
	adcs	r10, r10, r7
	ldr	r7, [sp, #52]                   @ 4-byte Reload
	adcs	r9, r9, r7
	ldr	r7, [sp, #44]                   @ 4-byte Reload
	adcs	r11, r6, r7
	ldr	r6, [sp, #36]                   @ 4-byte Reload
	adc	r6, r4, r6
	subs	r5, r0, r5
	sbcs	r4, r1, r2
	sbcs	r2, r10, r8
	sbcs	r0, r9, lr
	sbcs	r3, r11, r3
	sbc	r7, r6, r12
	asr	r1, r7, #31
	cmn	r1, #1
	movgt	r6, r7
	ldr	r7, [sp, #32]                   @ 4-byte Reload
	movle	r0, r9
	movle	r3, r11
	cmn	r1, #1
	str	r0, [r7, #12]
	movle	r2, r10
	ldr	r0, [sp, #80]                   @ 4-byte Reload
	str	r6, [r7, #20]
	str	r3, [r7, #16]
	movle	r4, r0
	ldr	r0, [sp, #88]                   @ 4-byte Reload
	str	r2, [r7, #8]
	str	r4, [r7, #4]
	movle	r5, r0
	str	r5, [r7]
	add	sp, sp, #92
	pop	{r4, r5, r6, r7, r8, r9, r10, r11, lr}
	mov	pc, lr
.Lfunc_end10:
	.size	mcl_fp_montNF6L, .Lfunc_end10-mcl_fp_montNF6L
	.cantunwind
	.fnend
                                        @ -- End function
	.globl	mcl_fp_montRed6L                @ -- Begin function mcl_fp_montRed6L
	.p2align	2
	.type	mcl_fp_montRed6L,%function
	.code	32                              @ @mcl_fp_montRed6L
mcl_fp_montRed6L:
	.fnstart
@ %bb.0:
	.save	{r4, r5, r6, r7, r8, r9, r10, r11, lr}
	push	{r4, r5, r6, r7, r8, r9, r10, r11, lr}
	.pad	#72
	sub	sp, sp, #72
	mov	r8, r1
	ldr	r3, [r2, #-4]
	ldr	r6, [r8, #4]
	ldr	r9, [r8]
	str	r6, [sp, #36]                   @ 4-byte Spill
	ldr	r6, [r8, #8]
	str	r6, [sp, #32]                   @ 4-byte Spill
	ldr	r6, [r8, #12]
	str	r6, [sp, #28]                   @ 4-byte Spill
	mul	r6, r9, r3
	ldr	r1, [r2, #4]
	str	r0, [sp, #40]                   @ 4-byte Spill
	ldr	r0, [r2]
	ldr	r7, [r2, #8]
	str	r1, [sp, #68]                   @ 4-byte Spill
	umull	r4, r5, r6, r1
	str	r0, [sp, #56]                   @ 4-byte Spill
	str	r3, [sp, #60]                   @ 4-byte Spill
	str	r7, [sp, #64]                   @ 4-byte Spill
	umull	lr, r1, r6, r0
	umull	r0, r12, r6, r7
	adds	r4, r1, r4
	adcs	r4, r5, r0
	ldr	r4, [r2, #12]
	str	r4, [sp, #48]                   @ 4-byte Spill
	umull	r5, r3, r6, r4
	ldr	r4, [r2, #16]
	str	r4, [sp, #52]                   @ 4-byte Spill
	adcs	r11, r12, r5
	umull	r10, r12, r6, r4
	adcs	r5, r3, r10
	ldr	r3, [r2, #20]
	str	r3, [sp, #44]                   @ 4-byte Spill
	umull	r4, r2, r6, r3
	adcs	r12, r12, r4
	ldr	r4, [sp, #68]                   @ 4-byte Reload
	adc	r2, r2, #0
	adds	r7, lr, r9
	ldr	r7, [sp, #36]                   @ 4-byte Reload
	umlal	r1, r0, r6, r4
	ldr	lr, [sp, #48]                   @ 4-byte Reload
	adcs	r9, r1, r7
	ldr	r1, [sp, #32]                   @ 4-byte Reload
	ldr	r7, [r8, #16]
	adcs	r0, r0, r1
	str	r0, [sp, #36]                   @ 4-byte Spill
	ldr	r0, [sp, #28]                   @ 4-byte Reload
	adcs	r0, r11, r0
	str	r0, [sp, #32]                   @ 4-byte Spill
	adcs	r0, r5, r7
	ldr	r7, [r8, #20]
	str	r0, [sp, #28]                   @ 4-byte Spill
	adcs	r0, r12, r7
	ldr	r7, [r8, #24]
	str	r0, [sp, #24]                   @ 4-byte Spill
	adcs	r0, r2, r7
	ldr	r12, [sp, #60]                  @ 4-byte Reload
	str	r0, [sp, #20]                   @ 4-byte Spill
	mov	r0, #0
	adc	r0, r0, #0
	str	r0, [sp, #16]                   @ 4-byte Spill
	mul	r0, r12, r9
	ldr	r7, [sp, #56]                   @ 4-byte Reload
	ldr	r5, [sp, #64]                   @ 4-byte Reload
	umull	r2, r1, r0, r7
	str	r2, [sp, #12]                   @ 4-byte Spill
	umull	r6, r2, r0, r4
	adds	r1, r6, r1
	str	r1, [sp, #8]                    @ 4-byte Spill
	umull	r6, r1, r0, r5
	adcs	r2, r6, r2
	umull	r6, r4, r0, lr
	str	r2, [sp, #4]                    @ 4-byte Spill
	ldr	r2, [sp, #52]                   @ 4-byte Reload
	adcs	r1, r6, r1
	umull	r6, r10, r0, r2
	str	r1, [sp]                        @ 4-byte Spill
	ldr	r1, [sp, #4]                    @ 4-byte Reload
	adcs	r11, r6, r4
	umull	r6, r4, r0, r3
	adcs	r0, r6, r10
	ldr	r6, [sp, #16]                   @ 4-byte Reload
	adc	r10, r6, r4
	ldr	r4, [sp, #12]                   @ 4-byte Reload
	adds	r6, r4, r9
	ldr	r4, [sp, #36]                   @ 4-byte Reload
	ldr	r6, [sp, #8]                    @ 4-byte Reload
	adcs	r6, r6, r4
	ldr	r4, [sp, #32]                   @ 4-byte Reload
	adcs	r4, r1, r4
	str	r4, [sp, #36]                   @ 4-byte Spill
	ldr	r4, [sp, #28]                   @ 4-byte Reload
	ldr	r1, [sp]                        @ 4-byte Reload
	adcs	r4, r1, r4
	str	r4, [sp, #32]                   @ 4-byte Spill
	ldr	r4, [sp, #24]                   @ 4-byte Reload
	adcs	r1, r11, r4
	str	r1, [sp, #28]                   @ 4-byte Spill
	ldr	r1, [sp, #20]                   @ 4-byte Reload
	ldr	r4, [r8, #28]
	adcs	r0, r0, r1
	str	r0, [sp, #24]                   @ 4-byte Spill
	adcs	r0, r10, r4
	str	r0, [sp, #20]                   @ 4-byte Spill
	mov	r0, #0
	adc	r0, r0, #0
	str	r0, [sp, #16]                   @ 4-byte Spill
	mul	r0, r12, r6
	umull	r1, r4, r0, r7
	str	r1, [sp, #12]                   @ 4-byte Spill
	ldr	r1, [sp, #68]                   @ 4-byte Reload
	umull	r7, r12, r0, r1
	adds	r9, r7, r4
	umull	r7, r11, r0, r5
	adcs	r7, r7, r12
	str	r7, [sp, #8]                    @ 4-byte Spill
	umull	r7, r10, r0, lr
	adcs	r11, r7, r11
	umull	r7, r12, r0, r2
	adcs	r5, r7, r10
	umull	r7, r2, r0, r3
	mov	r10, r3
	ldr	r3, [sp, #16]                   @ 4-byte Reload
	adcs	r0, r7, r12
	ldr	r7, [sp, #8]                    @ 4-byte Reload
	adc	r3, r3, r2
	ldr	r2, [sp, #12]                   @ 4-byte Reload
	ldr	r12, [sp, #52]                  @ 4-byte Reload
	adds	r2, r2, r6
	ldr	r2, [sp, #36]                   @ 4-byte Reload
	adcs	r9, r9, r2
	ldr	r2, [sp, #32]                   @ 4-byte Reload
	adcs	r2, r7, r2
	str	r2, [sp, #36]                   @ 4-byte Spill
	ldr	r2, [sp, #28]                   @ 4-byte Reload
	adcs	r2, r11, r2
	str	r2, [sp, #32]                   @ 4-byte Spill
	ldr	r2, [sp, #24]                   @ 4-byte Reload
	adcs	r2, r5, r2
	str	r2, [sp, #28]                   @ 4-byte Spill
	ldr	r2, [sp, #20]                   @ 4-byte Reload
	ldr	r5, [r8, #32]
	adcs	r0, r0, r2
	str	r0, [sp, #24]                   @ 4-byte Spill
	adcs	r0, r3, r5
	ldr	r3, [sp, #60]                   @ 4-byte Reload
	str	r0, [sp, #20]                   @ 4-byte Spill
	mov	r0, #0
	adc	r0, r0, #0
	str	r0, [sp, #16]                   @ 4-byte Spill
	mul	r0, r3, r9
	ldr	r5, [sp, #56]                   @ 4-byte Reload
	umull	r2, r6, r0, r5
	umull	r7, r4, r0, r1
	str	r2, [sp, #12]                   @ 4-byte Spill
	adds	r1, r7, r6
	str	r1, [sp, #8]                    @ 4-byte Spill
	ldr	r1, [sp, #64]                   @ 4-byte Reload
	umull	r7, r2, r0, r1
	adcs	r7, r7, r4
	str	r7, [sp, #4]                    @ 4-byte Spill
	umull	r7, r4, r0, lr
	adcs	r11, r7, r2
	umull	r7, r6, r0, r12
	adcs	r4, r7, r4
	umull	r7, r2, r0, r10
	mov	r10, r5
	adcs	r0, r7, r6
	ldr	r6, [sp, #16]                   @ 4-byte Reload
	adc	r7, r6, r2
	ldr	r2, [sp, #12]                   @ 4-byte Reload
	ldr	r6, [sp, #8]                    @ 4-byte Reload
	adds	r2, r2, r9
	ldr	r2, [sp, #36]                   @ 4-byte Reload
	adcs	r9, r6, r2
	ldr	r2, [sp, #32]                   @ 4-byte Reload
	ldr	r6, [sp, #4]                    @ 4-byte Reload
	adcs	r2, r6, r2
	str	r2, [sp, #36]                   @ 4-byte Spill
	ldr	r2, [sp, #28]                   @ 4-byte Reload
	adcs	r2, r11, r2
	str	r2, [sp, #32]                   @ 4-byte Spill
	ldr	r2, [sp, #24]                   @ 4-byte Reload
	adcs	r2, r4, r2
	str	r2, [sp, #28]                   @ 4-byte Spill
	ldr	r2, [sp, #20]                   @ 4-byte Reload
	ldr	r4, [r8, #36]
	adcs	r0, r0, r2
	str	r0, [sp, #24]                   @ 4-byte Spill
	adcs	r0, r7, r4
	str	r0, [sp, #20]                   @ 4-byte Spill
	mov	r0, #0
	adc	r0, r0, #0
	str	r0, [sp, #16]                   @ 4-byte Spill
	mul	r0, r3, r9
	umull	r2, r6, r0, r5
	ldr	r5, [sp, #68]                   @ 4-byte Reload
	umull	r7, r3, r0, r5
	str	r2, [sp, #12]                   @ 4-byte Spill
	adds	r11, r7, r6
	umull	r7, r2, r0, r1
	adcs	r6, r7, r3
	umull	r7, r1, r0, lr
	ldr	lr, [sp, #44]                   @ 4-byte Reload
	adcs	r4, r7, r2
	umull	r7, r2, r0, r12
	adcs	r12, r7, r1
	umull	r7, r1, r0, lr
	adcs	r0, r7, r2
	ldr	r2, [sp, #16]                   @ 4-byte Reload
	adc	r1, r2, r1
	ldr	r2, [sp, #12]                   @ 4-byte Reload
	adds	r2, r2, r9
	ldr	r2, [sp, #36]                   @ 4-byte Reload
	adcs	r3, r11, r2
	ldr	r2, [sp, #32]                   @ 4-byte Reload
	adcs	r2, r6, r2
	str	r2, [sp, #36]                   @ 4-byte Spill
	ldr	r2, [sp, #28]                   @ 4-byte Reload
	adcs	r2, r4, r2
	str	r2, [sp, #32]                   @ 4-byte Spill
	ldr	r2, [sp, #24]                   @ 4-byte Reload
	ldr	r4, [r8, #40]
	adcs	r2, r12, r2
	str	r2, [sp, #28]                   @ 4-byte Spill
	ldr	r2, [sp, #20]                   @ 4-byte Reload
	ldr	r12, [sp, #52]                  @ 4-byte Reload
	adcs	r0, r0, r2
	str	r0, [sp, #24]                   @ 4-byte Spill
	adcs	r0, r1, r4
	ldr	r1, [sp, #60]                   @ 4-byte Reload
	str	r0, [sp, #20]                   @ 4-byte Spill
	mov	r0, #0
	adc	r0, r0, #0
	str	r0, [sp, #16]                   @ 4-byte Spill
	mul	r0, r1, r3
	umull	r1, r6, r0, r10
	str	r1, [sp, #60]                   @ 4-byte Spill
	umull	r7, r1, r0, r5
	ldr	r5, [sp, #48]                   @ 4-byte Reload
	adds	r11, r7, r6
	ldr	r6, [sp, #64]                   @ 4-byte Reload
	umull	r7, r2, r0, r6
	adcs	r10, r7, r1
	umull	r7, r1, r0, r5
	adcs	r9, r7, r2
	umull	r7, r2, r0, r12
	adcs	r4, r7, r1
	umull	r7, r1, r0, lr
	adcs	r0, r7, r2
	ldr	r2, [sp, #16]                   @ 4-byte Reload
	adc	r1, r2, r1
	ldr	r2, [sp, #60]                   @ 4-byte Reload
	adds	r2, r2, r3
	ldr	r3, [sp, #32]                   @ 4-byte Reload
	ldr	r2, [sp, #36]                   @ 4-byte Reload
	adcs	r2, r11, r2
	adcs	lr, r10, r3
	ldr	r3, [sp, #28]                   @ 4-byte Reload
	adcs	r9, r9, r3
	ldr	r3, [sp, #24]                   @ 4-byte Reload
	adcs	r10, r4, r3
	ldr	r3, [sp, #20]                   @ 4-byte Reload
	adcs	r11, r0, r3
	ldr	r3, [r8, #44]
	ldr	r0, [sp, #56]                   @ 4-byte Reload
	mov	r8, r2
	adc	r1, r1, r3
	subs	r3, r2, r0
	ldr	r0, [sp, #68]                   @ 4-byte Reload
	sbcs	r4, lr, r0
	ldr	r0, [sp, #44]                   @ 4-byte Reload
	sbcs	r2, r9, r6
	sbcs	r7, r10, r5
	sbcs	r6, r11, r12
	sbcs	r5, r1, r0
	mov	r0, #0
	sbc	r0, r0, #0
	ands	r0, r0, #1
	movne	r5, r1
	ldr	r1, [sp, #40]                   @ 4-byte Reload
	movne	r6, r11
	movne	r7, r10
	cmp	r0, #0
	movne	r2, r9
	movne	r4, lr
	movne	r3, r8
	str	r5, [r1, #20]
	str	r6, [r1, #16]
	str	r7, [r1, #12]
	str	r2, [r1, #8]
	str	r4, [r1, #4]
	str	r3, [r1]
	add	sp, sp, #72
	pop	{r4, r5, r6, r7, r8, r9, r10, r11, lr}
	mov	pc, lr
.Lfunc_end11:
	.size	mcl_fp_montRed6L, .Lfunc_end11-mcl_fp_montRed6L
	.cantunwind
	.fnend
                                        @ -- End function
	.globl	mcl_fp_montRedNF6L              @ -- Begin function mcl_fp_montRedNF6L
	.p2align	2
	.type	mcl_fp_montRedNF6L,%function
	.code	32                              @ @mcl_fp_montRedNF6L
mcl_fp_montRedNF6L:
	.fnstart
@ %bb.0:
	.save	{r4, r5, r6, r7, r8, r9, r10, r11, lr}
	push	{r4, r5, r6, r7, r8, r9, r10, r11, lr}
	.pad	#72
	sub	sp, sp, #72
	mov	r8, r1
	ldr	r3, [r2, #-4]
	ldr	r6, [r8, #4]
	ldr	r9, [r8]
	str	r6, [sp, #36]                   @ 4-byte Spill
	ldr	r6, [r8, #8]
	str	r6, [sp, #32]                   @ 4-byte Spill
	ldr	r6, [r8, #12]
	str	r6, [sp, #28]                   @ 4-byte Spill
	mul	r6, r9, r3
	ldr	r1, [r2, #4]
	str	r0, [sp, #40]                   @ 4-byte Spill
	ldr	r0, [r2]
	ldr	r7, [r2, #8]
	str	r1, [sp, #68]                   @ 4-byte Spill
	umull	r4, r5, r6, r1
	str	r0, [sp, #56]                   @ 4-byte Spill
	str	r3, [sp, #60]                   @ 4-byte Spill
	str	r7, [sp, #64]                   @ 4-byte Spill
	umull	lr, r1, r6, r0
	umull	r0, r12, r6, r7
	adds	r4, r1, r4
	adcs	r4, r5, r0
	ldr	r4, [r2, #12]
	str	r4, [sp, #48]                   @ 4-byte Spill
	umull	r5, r3, r6, r4
	ldr	r4, [r2, #16]
	str	r4, [sp, #52]                   @ 4-byte Spill
	adcs	r11, r12, r5
	umull	r10, r12, r6, r4
	adcs	r5, r3, r10
	ldr	r3, [r2, #20]
	str	r3, [sp, #44]                   @ 4-byte Spill
	umull	r4, r2, r6, r3
	adcs	r12, r12, r4
	ldr	r4, [sp, #68]                   @ 4-byte Reload
	adc	r2, r2, #0
	adds	r7, lr, r9
	ldr	r7, [sp, #36]                   @ 4-byte Reload
	umlal	r1, r0, r6, r4
	ldr	lr, [sp, #48]                   @ 4-byte Reload
	adcs	r9, r1, r7
	ldr	r1, [sp, #32]                   @ 4-byte Reload
	ldr	r7, [r8, #16]
	adcs	r0, r0, r1
	str	r0, [sp, #36]                   @ 4-byte Spill
	ldr	r0, [sp, #28]                   @ 4-byte Reload
	adcs	r0, r11, r0
	str	r0, [sp, #32]                   @ 4-byte Spill
	adcs	r0, r5, r7
	ldr	r7, [r8, #20]
	str	r0, [sp, #28]                   @ 4-byte Spill
	adcs	r0, r12, r7
	ldr	r7, [r8, #24]
	str	r0, [sp, #24]                   @ 4-byte Spill
	adcs	r0, r2, r7
	ldr	r12, [sp, #60]                  @ 4-byte Reload
	str	r0, [sp, #20]                   @ 4-byte Spill
	mov	r0, #0
	adc	r0, r0, #0
	str	r0, [sp, #16]                   @ 4-byte Spill
	mul	r0, r12, r9
	ldr	r7, [sp, #56]                   @ 4-byte Reload
	ldr	r5, [sp, #64]                   @ 4-byte Reload
	umull	r2, r1, r0, r7
	str	r2, [sp, #12]                   @ 4-byte Spill
	umull	r6, r2, r0, r4
	adds	r1, r6, r1
	str	r1, [sp, #8]                    @ 4-byte Spill
	umull	r6, r1, r0, r5
	adcs	r2, r6, r2
	umull	r6, r4, r0, lr
	str	r2, [sp, #4]                    @ 4-byte Spill
	ldr	r2, [sp, #52]                   @ 4-byte Reload
	adcs	r1, r6, r1
	umull	r6, r10, r0, r2
	str	r1, [sp]                        @ 4-byte Spill
	ldr	r1, [sp, #4]                    @ 4-byte Reload
	adcs	r11, r6, r4
	umull	r6, r4, r0, r3
	adcs	r0, r6, r10
	ldr	r6, [sp, #16]                   @ 4-byte Reload
	adc	r10, r6, r4
	ldr	r4, [sp, #12]                   @ 4-byte Reload
	adds	r6, r4, r9
	ldr	r4, [sp, #36]                   @ 4-byte Reload
	ldr	r6, [sp, #8]                    @ 4-byte Reload
	adcs	r6, r6, r4
	ldr	r4, [sp, #32]                   @ 4-byte Reload
	adcs	r4, r1, r4
	str	r4, [sp, #36]                   @ 4-byte Spill
	ldr	r4, [sp, #28]                   @ 4-byte Reload
	ldr	r1, [sp]                        @ 4-byte Reload
	adcs	r4, r1, r4
	str	r4, [sp, #32]                   @ 4-byte Spill
	ldr	r4, [sp, #24]                   @ 4-byte Reload
	adcs	r1, r11, r4
	str	r1, [sp, #28]                   @ 4-byte Spill
	ldr	r1, [sp, #20]                   @ 4-byte Reload
	ldr	r4, [r8, #28]
	adcs	r0, r0, r1
	str	r0, [sp, #24]                   @ 4-byte Spill
	adcs	r0, r10, r4
	str	r0, [sp, #20]                   @ 4-byte Spill
	mov	r0, #0
	adc	r0, r0, #0
	str	r0, [sp, #16]                   @ 4-byte Spill
	mul	r0, r12, r6
	umull	r1, r4, r0, r7
	str	r1, [sp, #12]                   @ 4-byte Spill
	ldr	r1, [sp, #68]                   @ 4-byte Reload
	umull	r7, r12, r0, r1
	adds	r9, r7, r4
	umull	r7, r11, r0, r5
	adcs	r7, r7, r12
	str	r7, [sp, #8]                    @ 4-byte Spill
	umull	r7, r10, r0, lr
	adcs	r11, r7, r11
	umull	r7, r12, r0, r2
	adcs	r5, r7, r10
	umull	r7, r2, r0, r3
	mov	r10, r3
	ldr	r3, [sp, #16]                   @ 4-byte Reload
	adcs	r0, r7, r12
	ldr	r7, [sp, #8]                    @ 4-byte Reload
	adc	r3, r3, r2
	ldr	r2, [sp, #12]                   @ 4-byte Reload
	ldr	r12, [sp, #52]                  @ 4-byte Reload
	adds	r2, r2, r6
	ldr	r2, [sp, #36]                   @ 4-byte Reload
	adcs	r9, r9, r2
	ldr	r2, [sp, #32]                   @ 4-byte Reload
	adcs	r2, r7, r2
	str	r2, [sp, #36]                   @ 4-byte Spill
	ldr	r2, [sp, #28]                   @ 4-byte Reload
	adcs	r2, r11, r2
	str	r2, [sp, #32]                   @ 4-byte Spill
	ldr	r2, [sp, #24]                   @ 4-byte Reload
	adcs	r2, r5, r2
	str	r2, [sp, #28]                   @ 4-byte Spill
	ldr	r2, [sp, #20]                   @ 4-byte Reload
	ldr	r5, [r8, #32]
	adcs	r0, r0, r2
	str	r0, [sp, #24]                   @ 4-byte Spill
	adcs	r0, r3, r5
	ldr	r3, [sp, #60]                   @ 4-byte Reload
	str	r0, [sp, #20]                   @ 4-byte Spill
	mov	r0, #0
	adc	r0, r0, #0
	str	r0, [sp, #16]                   @ 4-byte Spill
	mul	r0, r3, r9
	ldr	r5, [sp, #56]                   @ 4-byte Reload
	umull	r2, r6, r0, r5
	umull	r7, r4, r0, r1
	str	r2, [sp, #12]                   @ 4-byte Spill
	adds	r1, r7, r6
	str	r1, [sp, #8]                    @ 4-byte Spill
	ldr	r1, [sp, #64]                   @ 4-byte Reload
	umull	r7, r2, r0, r1
	adcs	r7, r7, r4
	str	r7, [sp, #4]                    @ 4-byte Spill
	umull	r7, r4, r0, lr
	adcs	r11, r7, r2
	umull	r7, r6, r0, r12
	adcs	r4, r7, r4
	umull	r7, r2, r0, r10
	mov	r10, r5
	adcs	r0, r7, r6
	ldr	r6, [sp, #16]                   @ 4-byte Reload
	adc	r7, r6, r2
	ldr	r2, [sp, #12]                   @ 4-byte Reload
	ldr	r6, [sp, #8]                    @ 4-byte Reload
	adds	r2, r2, r9
	ldr	r2, [sp, #36]                   @ 4-byte Reload
	adcs	r9, r6, r2
	ldr	r2, [sp, #32]                   @ 4-byte Reload
	ldr	r6, [sp, #4]                    @ 4-byte Reload
	adcs	r2, r6, r2
	str	r2, [sp, #36]                   @ 4-byte Spill
	ldr	r2, [sp, #28]                   @ 4-byte Reload
	adcs	r2, r11, r2
	str	r2, [sp, #32]                   @ 4-byte Spill
	ldr	r2, [sp, #24]                   @ 4-byte Reload
	adcs	r2, r4, r2
	str	r2, [sp, #28]                   @ 4-byte Spill
	ldr	r2, [sp, #20]                   @ 4-byte Reload
	ldr	r4, [r8, #36]
	adcs	r0, r0, r2
	str	r0, [sp, #24]                   @ 4-byte Spill
	adcs	r0, r7, r4
	str	r0, [sp, #20]                   @ 4-byte Spill
	mov	r0, #0
	adc	r0, r0, #0
	str	r0, [sp, #16]                   @ 4-byte Spill
	mul	r0, r3, r9
	umull	r2, r6, r0, r5
	ldr	r5, [sp, #68]                   @ 4-byte Reload
	umull	r7, r3, r0, r5
	str	r2, [sp, #12]                   @ 4-byte Spill
	adds	r11, r7, r6
	umull	r7, r2, r0, r1
	adcs	r6, r7, r3
	umull	r7, r1, r0, lr
	ldr	lr, [sp, #44]                   @ 4-byte Reload
	adcs	r4, r7, r2
	umull	r7, r2, r0, r12
	adcs	r12, r7, r1
	umull	r7, r1, r0, lr
	adcs	r0, r7, r2
	ldr	r2, [sp, #16]                   @ 4-byte Reload
	adc	r1, r2, r1
	ldr	r2, [sp, #12]                   @ 4-byte Reload
	adds	r2, r2, r9
	ldr	r2, [sp, #36]                   @ 4-byte Reload
	adcs	r3, r11, r2
	ldr	r2, [sp, #32]                   @ 4-byte Reload
	adcs	r2, r6, r2
	str	r2, [sp, #36]                   @ 4-byte Spill
	ldr	r2, [sp, #28]                   @ 4-byte Reload
	adcs	r2, r4, r2
	str	r2, [sp, #32]                   @ 4-byte Spill
	ldr	r2, [sp, #24]                   @ 4-byte Reload
	ldr	r4, [r8, #40]
	adcs	r2, r12, r2
	str	r2, [sp, #28]                   @ 4-byte Spill
	ldr	r2, [sp, #20]                   @ 4-byte Reload
	ldr	r12, [sp, #52]                  @ 4-byte Reload
	adcs	r0, r0, r2
	str	r0, [sp, #24]                   @ 4-byte Spill
	adcs	r0, r1, r4
	ldr	r1, [sp, #60]                   @ 4-byte Reload
	str	r0, [sp, #20]                   @ 4-byte Spill
	mov	r0, #0
	adc	r0, r0, #0
	str	r0, [sp, #16]                   @ 4-byte Spill
	mul	r0, r1, r3
	umull	r1, r6, r0, r10
	str	r1, [sp, #60]                   @ 4-byte Spill
	umull	r7, r1, r0, r5
	ldr	r5, [sp, #48]                   @ 4-byte Reload
	adds	r11, r7, r6
	ldr	r6, [sp, #64]                   @ 4-byte Reload
	umull	r7, r2, r0, r6
	adcs	r10, r7, r1
	umull	r7, r1, r0, r5
	adcs	r9, r7, r2
	umull	r7, r2, r0, r12
	adcs	r4, r7, r1
	umull	r7, r1, r0, lr
	adcs	r0, r7, r2
	ldr	r2, [sp, #16]                   @ 4-byte Reload
	adc	r1, r2, r1
	ldr	r2, [sp, #60]                   @ 4-byte Reload
	adds	r2, r2, r3
	ldr	r3, [sp, #32]                   @ 4-byte Reload
	ldr	r2, [sp, #36]                   @ 4-byte Reload
	adcs	r2, r11, r2
	adcs	lr, r10, r3
	ldr	r3, [sp, #28]                   @ 4-byte Reload
	adcs	r9, r9, r3
	ldr	r3, [sp, #24]                   @ 4-byte Reload
	adcs	r10, r4, r3
	ldr	r3, [sp, #20]                   @ 4-byte Reload
	adcs	r11, r0, r3
	ldr	r3, [r8, #44]
	ldr	r0, [sp, #56]                   @ 4-byte Reload
	mov	r8, r2
	adc	r1, r1, r3
	subs	r3, r2, r0
	ldr	r0, [sp, #68]                   @ 4-byte Reload
	sbcs	r4, lr, r0
	ldr	r0, [sp, #44]                   @ 4-byte Reload
	sbcs	r2, r9, r6
	sbcs	r7, r10, r5
	sbcs	r6, r11, r12
	sbc	r5, r1, r0
	asr	r0, r5, #31
	cmn	r0, #1
	movgt	r1, r5
	ldr	r5, [sp, #40]                   @ 4-byte Reload
	movle	r6, r11
	movle	r7, r10
	cmn	r0, #1
	movle	r2, r9
	movle	r4, lr
	movle	r3, r8
	str	r1, [r5, #20]
	str	r6, [r5, #16]
	str	r7, [r5, #12]
	str	r2, [r5, #8]
	str	r4, [r5, #4]
	str	r3, [r5]
	add	sp, sp, #72
	pop	{r4, r5, r6, r7, r8, r9, r10, r11, lr}
	mov	pc, lr
.Lfunc_end12:
	.size	mcl_fp_montRedNF6L, .Lfunc_end12-mcl_fp_montRedNF6L
	.cantunwind
	.fnend
                                        @ -- End function
	.globl	mcl_fp_addPre6L                 @ -- Begin function mcl_fp_addPre6L
	.p2align	2
	.type	mcl_fp_addPre6L,%function
	.code	32                              @ @mcl_fp_addPre6L
mcl_fp_addPre6L:
	.fnstart
@ %bb.0:
	.save	{r4, r5, r6, r7, r8, lr}
	push	{r4, r5, r6, r7, r8, lr}
	ldm	r2, {r3, r12, lr}
	ldm	r1, {r5, r6, r7}
	adds	r3, r5, r3
	str	r3, [r0]
	adcs	r3, r6, r12
	ldr	r8, [r2, #12]
	ldr	r4, [r1, #12]
	str	r3, [r0, #4]
	adcs	r3, r7, lr
	str	r3, [r0, #8]
	adcs	r3, r4, r8
	str	r3, [r0, #12]
	ldr	r3, [r2, #16]
	ldr	r7, [r1, #16]
	ldr	r2, [r2, #20]
	ldr	r1, [r1, #20]
	adcs	r3, r7, r3
	str	r3, [r0, #16]
	adcs	r1, r1, r2
	str	r1, [r0, #20]
	mov	r0, #0
	adc	r0, r0, #0
	pop	{r4, r5, r6, r7, r8, lr}
	mov	pc, lr
.Lfunc_end13:
	.size	mcl_fp_addPre6L, .Lfunc_end13-mcl_fp_addPre6L
	.cantunwind
	.fnend
                                        @ -- End function
	.globl	mcl_fp_subPre6L                 @ -- Begin function mcl_fp_subPre6L
	.p2align	2
	.type	mcl_fp_subPre6L,%function
	.code	32                              @ @mcl_fp_subPre6L
mcl_fp_subPre6L:
	.fnstart
@ %bb.0:
	.save	{r4, r5, r6, r7, r8, lr}
	push	{r4, r5, r6, r7, r8, lr}
	ldm	r2, {r3, r12, lr}
	ldm	r1, {r5, r6, r7}
	subs	r3, r5, r3
	str	r3, [r0]
	sbcs	r3, r6, r12
	ldr	r8, [r2, #12]
	ldr	r4, [r1, #12]
	str	r3, [r0, #4]
	sbcs	r3, r7, lr
	str	r3, [r0, #8]
	sbcs	r3, r4, r8
	str	r3, [r0, #12]
	ldr	r3, [r2, #16]
	ldr	r7, [r1, #16]
	ldr	r2, [r2, #20]
	ldr	r1, [r1, #20]
	sbcs	r3, r7, r3
	str	r3, [r0, #16]
	sbcs	r1, r1, r2
	str	r1, [r0, #20]
	mov	r0, #0
	sbc	r0, r0, #0
	and	r0, r0, #1
	pop	{r4, r5, r6, r7, r8, lr}
	mov	pc, lr
.Lfunc_end14:
	.size	mcl_fp_subPre6L, .Lfunc_end14-mcl_fp_subPre6L
	.cantunwind
	.fnend
                                        @ -- End function
	.globl	mcl_fp_shr1_6L                  @ -- Begin function mcl_fp_shr1_6L
	.p2align	2
	.type	mcl_fp_shr1_6L,%function
	.code	32                              @ @mcl_fp_shr1_6L
mcl_fp_shr1_6L:
	.fnstart
@ %bb.0:
	.save	{r4, r5, r6, r7, r11, lr}
	push	{r4, r5, r6, r7, r11, lr}
	add	r4, r1, #8
	ldm	r1, {r12, lr}
	lsr	r6, lr, #1
	ldr	r1, [r1, #20]
	ldm	r4, {r2, r3, r4}
	lsr	r5, r3, #1
	orr	r5, r5, r4, lsl #31
	lsr	r7, r1, #1
	lsrs	r1, r1, #1
	rrx	r1, r4
	lsrs	r3, r3, #1
	orr	r6, r6, r2, lsl #31
	rrx	r2, r2
	lsrs	r3, lr, #1
	rrx	r3, r12
	stm	r0, {r3, r6}
	str	r2, [r0, #8]
	str	r5, [r0, #12]
	str	r1, [r0, #16]
	str	r7, [r0, #20]
	pop	{r4, r5, r6, r7, r11, lr}
	mov	pc, lr
.Lfunc_end15:
	.size	mcl_fp_shr1_6L, .Lfunc_end15-mcl_fp_shr1_6L
	.cantunwind
	.fnend
                                        @ -- End function
	.globl	mcl_fp_add6L                    @ -- Begin function mcl_fp_add6L
	.p2align	2
	.type	mcl_fp_add6L,%function
	.code	32                              @ @mcl_fp_add6L
mcl_fp_add6L:
	.fnstart
@ %bb.0:
	.save	{r4, r5, r6, r7, r8, r9, r10, r11, lr}
	push	{r4, r5, r6, r7, r8, r9, r10, r11, lr}
	ldm	r2, {r8, r12, lr}
	ldm	r1, {r6, r7}
	adds	r10, r6, r8
	ldr	r4, [r1, #8]
	adcs	r11, r7, r12
	ldr	r9, [r2, #12]
	ldr	r5, [r1, #12]
	adcs	r12, r4, lr
	ldr	r4, [r2, #16]
	adcs	lr, r5, r9
	ldr	r5, [r1, #16]
	ldr	r2, [r2, #20]
	ldr	r1, [r1, #20]
	adcs	r4, r5, r4
	stm	r0, {r10, r11, r12, lr}
	adcs	r5, r1, r2
	mov	r1, #0
	ldr	r2, [r3]
	adc	r8, r1, #0
	ldmib	r3, {r1, r6, r7, r9}
	subs	r10, r10, r2
	sbcs	r2, r11, r1
	ldr	r3, [r3, #20]
	sbcs	r1, r12, r6
	str	r4, [r0, #16]
	sbcs	r12, lr, r7
	str	r5, [r0, #20]
	sbcs	lr, r4, r9
	sbcs	r4, r5, r3
	sbc	r3, r8, #0
	tst	r3, #1
	bne	.LBB16_2
@ %bb.1:                                @ %nocarry
	str	r2, [r0, #4]
	add	r2, r0, #8
	str	r10, [r0]
	stm	r2, {r1, r12, lr}
	str	r4, [r0, #20]
.LBB16_2:                               @ %carry
	pop	{r4, r5, r6, r7, r8, r9, r10, r11, lr}
	mov	pc, lr
.Lfunc_end16:
	.size	mcl_fp_add6L, .Lfunc_end16-mcl_fp_add6L
	.cantunwind
	.fnend
                                        @ -- End function
	.globl	mcl_fp_addNF6L                  @ -- Begin function mcl_fp_addNF6L
	.p2align	2
	.type	mcl_fp_addNF6L,%function
	.code	32                              @ @mcl_fp_addNF6L
mcl_fp_addNF6L:
	.fnstart
@ %bb.0:
	.save	{r4, r5, r6, r7, r8, r9, r10, r11, lr}
	push	{r4, r5, r6, r7, r8, r9, r10, r11, lr}
	add	r11, r1, #8
	ldm	r1, {r12, lr}
	ldm	r2, {r1, r4, r5, r6, r7}
	adds	r12, r1, r12
	ldm	r11, {r8, r9, r10, r11}
	adcs	lr, r4, lr
	adcs	r8, r5, r8
	ldr	r2, [r2, #20]
	adcs	r9, r6, r9
	adcs	r7, r7, r10
	adc	r2, r2, r11
	ldm	r3, {r1, r4, r5, r6, r10, r11}
	subs	r1, r12, r1
	sbcs	r4, lr, r4
	sbcs	r5, r8, r5
	sbcs	r6, r9, r6
	sbcs	r3, r7, r10
	sbc	r10, r2, r11
	asr	r11, r10, #31
	cmn	r11, #1
	movgt	r2, r10
	movle	r3, r7
	movle	r6, r9
	cmn	r11, #1
	movle	r5, r8
	movle	r4, lr
	movle	r1, r12
	str	r2, [r0, #20]
	str	r3, [r0, #16]
	str	r6, [r0, #12]
	str	r5, [r0, #8]
	str	r4, [r0, #4]
	str	r1, [r0]
	pop	{r4, r5, r6, r7, r8, r9, r10, r11, lr}
	mov	pc, lr
.Lfunc_end17:
	.size	mcl_fp_addNF6L, .Lfunc_end17-mcl_fp_addNF6L
	.cantunwind
	.fnend
                                        @ -- End function
	.globl	mcl_fp_sub6L                    @ -- Begin function mcl_fp_sub6L
	.p2align	2
	.type	mcl_fp_sub6L,%function
	.code	32                              @ @mcl_fp_sub6L
mcl_fp_sub6L:
	.fnstart
@ %bb.0:
	.save	{r4, r5, r6, r7, r8, r9, r11, lr}
	push	{r4, r5, r6, r7, r8, r9, r11, lr}
	ldr	r9, [r2]
	ldm	r1, {r4, r7}
	ldmib	r2, {r8, lr}
	subs	r4, r4, r9
	ldr	r5, [r1, #8]
	sbcs	r7, r7, r8
	ldr	r12, [r2, #12]
	ldr	r6, [r1, #12]
	sbcs	r8, r5, lr
	ldr	r5, [r1, #16]
	sbcs	r12, r6, r12
	ldr	r6, [r2, #16]
	ldr	r2, [r2, #20]
	ldr	r1, [r1, #20]
	sbcs	lr, r5, r6
	stm	r0, {r4, r7, r8, r12, lr}
	sbcs	r1, r1, r2
	mov	r2, #0
	str	r1, [r0, #20]
	sbc	r2, r2, #0
	tst	r2, #1
	bne	.LBB18_2
@ %bb.1:                                @ %nocarry
	pop	{r4, r5, r6, r7, r8, r9, r11, lr}
	mov	pc, lr
.LBB18_2:                               @ %carry
	ldm	r3, {r2, r5, r6, r9}
	adds	r2, r2, r4
	str	r2, [r0]
	adcs	r2, r5, r7
	str	r2, [r0, #4]
	adcs	r2, r6, r8
	str	r2, [r0, #8]
	adcs	r2, r9, r12
	str	r2, [r0, #12]
	ldr	r2, [r3, #16]
	adcs	r2, r2, lr
	str	r2, [r0, #16]
	ldr	r2, [r3, #20]
	adc	r1, r2, r1
	str	r1, [r0, #20]
	pop	{r4, r5, r6, r7, r8, r9, r11, lr}
	mov	pc, lr
.Lfunc_end18:
	.size	mcl_fp_sub6L, .Lfunc_end18-mcl_fp_sub6L
	.cantunwind
	.fnend
                                        @ -- End function
	.globl	mcl_fp_subNF6L                  @ -- Begin function mcl_fp_subNF6L
	.p2align	2
	.type	mcl_fp_subNF6L,%function
	.code	32                              @ @mcl_fp_subNF6L
mcl_fp_subNF6L:
	.fnstart
@ %bb.0:
	.save	{r4, r5, r6, r7, r8, r9, r10, r11, lr}
	push	{r4, r5, r6, r7, r8, r9, r10, r11, lr}
	add	r11, r2, #8
	ldm	r2, {r12, lr}
	ldm	r1, {r2, r4, r5, r6, r7}
	subs	r12, r2, r12
	ldm	r11, {r8, r9, r10, r11}
	sbcs	lr, r4, lr
	sbcs	r8, r5, r8
	ldr	r1, [r1, #20]
	sbcs	r9, r6, r9
	ldr	r4, [r3]
	sbcs	r7, r7, r10
	sbc	r1, r1, r11
	ldmib	r3, {r2, r5, r6, r10, r11}
	adds	r4, r12, r4
	adcs	r2, lr, r2
	adcs	r5, r8, r5
	adcs	r6, r9, r6
	adcs	r10, r7, r10
	adc	r3, r1, r11
	asr	r11, r1, #31
	cmp	r11, #0
	movpl	r3, r1
	movpl	r10, r7
	movpl	r6, r9
	cmp	r11, #0
	movpl	r5, r8
	movpl	r2, lr
	movpl	r4, r12
	str	r3, [r0, #20]
	str	r10, [r0, #16]
	str	r6, [r0, #12]
	str	r5, [r0, #8]
	str	r2, [r0, #4]
	str	r4, [r0]
	pop	{r4, r5, r6, r7, r8, r9, r10, r11, lr}
	mov	pc, lr
.Lfunc_end19:
	.size	mcl_fp_subNF6L, .Lfunc_end19-mcl_fp_subNF6L
	.cantunwind
	.fnend
                                        @ -- End function
	.globl	mcl_fpDbl_add6L                 @ -- Begin function mcl_fpDbl_add6L
	.p2align	2
	.type	mcl_fpDbl_add6L,%function
	.code	32                              @ @mcl_fpDbl_add6L
mcl_fpDbl_add6L:
	.fnstart
@ %bb.0:
	.save	{r4, r5, r6, r7, r8, r9, r10, r11, lr}
	push	{r4, r5, r6, r7, r8, r9, r10, r11, lr}
	.pad	#28
	sub	sp, sp, #28
	ldm	r2, {r8, r9, lr}
	ldm	r1, {r4, r5, r6, r7}
	adds	r4, r4, r8
	str	r4, [sp, #24]                   @ 4-byte Spill
	adcs	r4, r5, r9
	ldr	r12, [r2, #12]
	adcs	r6, r6, lr
	str	r4, [sp, #20]                   @ 4-byte Spill
	str	r6, [sp, #16]                   @ 4-byte Spill
	adcs	r7, r7, r12
	ldr	r4, [r2, #16]
	add	lr, r1, #32
	ldr	r6, [r1, #16]
	str	r7, [sp, #12]                   @ 4-byte Spill
	adcs	r7, r6, r4
	ldr	r5, [r2, #20]
	ldr	r6, [r1, #20]
	str	r7, [sp, #8]                    @ 4-byte Spill
	adcs	r7, r6, r5
	str	r7, [sp, #4]                    @ 4-byte Spill
	ldr	r6, [r2, #24]
	ldr	r7, [r1, #24]
	ldr	r4, [r2, #40]
	adcs	r11, r7, r6
	ldr	r6, [r1, #28]
	ldr	r7, [r2, #28]
	ldr	r5, [r2, #44]
	adcs	r10, r6, r7
	ldr	r6, [r2, #32]
	ldr	r7, [r2, #36]
	ldm	lr, {r2, r12, lr}
	adcs	r8, r2, r6
	ldr	r1, [r1, #44]
	adcs	r7, r12, r7
	mov	r2, #0
	adcs	lr, lr, r4
	ldr	r4, [r3, #8]
	adcs	r12, r1, r5
	ldr	r6, [sp, #20]                   @ 4-byte Reload
	adc	r9, r2, #0
	ldm	r3, {r2, r5}
	subs	r2, r11, r2
	str	r11, [sp]                       @ 4-byte Spill
	sbcs	r5, r10, r5
	ldr	r11, [sp, #24]                  @ 4-byte Reload
	ldr	r1, [r3, #12]
	sbcs	r4, r8, r4
	str	r11, [r0]
	str	r6, [r0, #4]
	sbcs	r1, r7, r1
	ldr	r6, [sp, #16]                   @ 4-byte Reload
	ldr	r11, [r3, #20]
	ldr	r3, [r3, #16]
	str	r6, [r0, #8]
	ldr	r6, [sp, #12]                   @ 4-byte Reload
	sbcs	r3, lr, r3
	str	r6, [r0, #12]
	sbcs	r11, r12, r11
	ldr	r6, [sp, #8]                    @ 4-byte Reload
	str	r6, [r0, #16]
	ldr	r6, [sp, #4]                    @ 4-byte Reload
	str	r6, [r0, #20]
	sbc	r6, r9, #0
	ands	r6, r6, #1
	movne	r11, r12
	movne	r3, lr
	movne	r1, r7
	cmp	r6, #0
	movne	r4, r8
	add	r12, r0, #36
	str	r4, [r0, #32]
	movne	r5, r10
	stm	r12, {r1, r3, r11}
	ldr	r1, [sp]                        @ 4-byte Reload
	str	r5, [r0, #28]
	movne	r2, r1
	str	r2, [r0, #24]
	add	sp, sp, #28
	pop	{r4, r5, r6, r7, r8, r9, r10, r11, lr}
	mov	pc, lr
.Lfunc_end20:
	.size	mcl_fpDbl_add6L, .Lfunc_end20-mcl_fpDbl_add6L
	.cantunwind
	.fnend
                                        @ -- End function
	.globl	mcl_fpDbl_sub6L                 @ -- Begin function mcl_fpDbl_sub6L
	.p2align	2
	.type	mcl_fpDbl_sub6L,%function
	.code	32                              @ @mcl_fpDbl_sub6L
mcl_fpDbl_sub6L:
	.fnstart
@ %bb.0:
	.save	{r4, r5, r6, r7, r8, r9, r10, r11, lr}
	push	{r4, r5, r6, r7, r8, r9, r10, r11, lr}
	.pad	#56
	sub	sp, sp, #56
	ldr	r7, [r2, #32]
	add	r8, r1, #12
	str	r7, [sp, #40]                   @ 4-byte Spill
	ldr	r7, [r2, #36]
	str	r7, [sp, #44]                   @ 4-byte Spill
	ldr	r7, [r2, #40]
	str	r7, [sp, #48]                   @ 4-byte Spill
	ldr	r7, [r2, #44]
	str	r7, [sp, #52]                   @ 4-byte Spill
	ldr	r7, [r1, #44]
	str	r7, [sp, #36]                   @ 4-byte Spill
	ldr	r7, [r1, #40]
	str	r7, [sp, #32]                   @ 4-byte Spill
	ldr	r7, [r2, #8]
	str	r7, [sp, #16]                   @ 4-byte Spill
	ldr	r7, [r2, #16]
	str	r7, [sp, #8]                    @ 4-byte Spill
	ldr	r7, [r2, #20]
	str	r7, [sp, #4]                    @ 4-byte Spill
	ldr	r7, [r2, #24]
	ldm	r2, {r9, r10}
	ldr	r11, [r2, #12]
	ldr	r2, [r2, #28]
	str	r2, [sp]                        @ 4-byte Spill
	ldm	r1, {r2, r12, lr}
	subs	r2, r2, r9
	str	r2, [sp, #28]                   @ 4-byte Spill
	sbcs	r2, r12, r10
	str	r2, [sp, #24]                   @ 4-byte Spill
	ldr	r2, [sp, #16]                   @ 4-byte Reload
	str	r7, [sp, #20]                   @ 4-byte Spill
	ldm	r8, {r4, r5, r6, r7, r8}
	sbcs	r2, lr, r2
	str	r2, [sp, #16]                   @ 4-byte Spill
	sbcs	r2, r4, r11
	str	r2, [sp, #12]                   @ 4-byte Spill
	ldr	r2, [sp, #8]                    @ 4-byte Reload
	ldr	r9, [r1, #36]
	sbcs	r2, r5, r2
	str	r2, [sp, #8]                    @ 4-byte Spill
	ldr	r2, [sp, #4]                    @ 4-byte Reload
	mov	r5, #0
	ldr	r1, [r1, #32]
	sbcs	r2, r6, r2
	str	r2, [sp, #4]                    @ 4-byte Spill
	ldr	r2, [sp, #20]                   @ 4-byte Reload
	ldr	r11, [sp, #28]                  @ 4-byte Reload
	sbcs	r6, r7, r2
	ldr	r2, [sp]                        @ 4-byte Reload
	ldr	r7, [sp, #40]                   @ 4-byte Reload
	sbcs	r10, r8, r2
	ldr	r2, [sp, #32]                   @ 4-byte Reload
	sbcs	r8, r1, r7
	ldr	r1, [sp, #44]                   @ 4-byte Reload
	str	r11, [r0]
	sbcs	r4, r9, r1
	ldr	r1, [sp, #48]                   @ 4-byte Reload
	ldr	r11, [r3, #20]
	sbcs	r7, r2, r1
	ldr	r1, [sp, #52]                   @ 4-byte Reload
	ldr	r2, [sp, #36]                   @ 4-byte Reload
	str	r6, [sp, #20]                   @ 4-byte Spill
	sbcs	lr, r2, r1
	ldmib	r3, {r1, r2, r12}
	sbc	r9, r5, #0
	ldr	r5, [r3]
	ldr	r3, [r3, #16]
	adds	r5, r6, r5
	ldr	r6, [sp, #24]                   @ 4-byte Reload
	adcs	r1, r10, r1
	str	r6, [r0, #4]
	adcs	r2, r8, r2
	ldr	r6, [sp, #16]                   @ 4-byte Reload
	adcs	r12, r4, r12
	str	r6, [r0, #8]
	adcs	r3, r7, r3
	ldr	r6, [sp, #12]                   @ 4-byte Reload
	adc	r11, lr, r11
	ands	r9, r9, #1
	moveq	r11, lr
	moveq	r3, r7
	moveq	r12, r4
	cmp	r9, #0
	moveq	r1, r10
	str	r6, [r0, #12]
	str	r1, [r0, #28]
	moveq	r2, r8
	ldr	r1, [sp, #20]                   @ 4-byte Reload
	ldr	r6, [sp, #8]                    @ 4-byte Reload
	str	r6, [r0, #16]
	ldr	r6, [sp, #4]                    @ 4-byte Reload
	moveq	r5, r1
	str	r6, [r0, #20]
	str	r2, [r0, #32]
	str	r12, [r0, #36]
	str	r3, [r0, #40]
	str	r11, [r0, #44]
	str	r5, [r0, #24]
	add	sp, sp, #56
	pop	{r4, r5, r6, r7, r8, r9, r10, r11, lr}
	mov	pc, lr
.Lfunc_end21:
	.size	mcl_fpDbl_sub6L, .Lfunc_end21-mcl_fpDbl_sub6L
	.cantunwind
	.fnend
                                        @ -- End function
	.globl	mulPv224x32                     @ -- Begin function mulPv224x32
	.p2align	2
	.type	mulPv224x32,%function
	.code	32                              @ @mulPv224x32
mulPv224x32:
	.fnstart
@ %bb.0:
	.save	{r4, r5, r6, r7, r8, r9, r11, lr}
	push	{r4, r5, r6, r7, r8, r9, r11, lr}
	ldr	r12, [r1]
	ldmib	r1, {r3, lr}
	umull	r7, r6, r12, r2
	ldr	r4, [r1, #12]
	umull	r5, r8, r3, r2
	str	r7, [r0]
	umull	r9, r12, r4, r2
	adds	r7, r6, r5
	umull	r5, r4, lr, r2
	adcs	r7, r8, r5
	umlal	r6, r5, r3, r2
	adcs	r7, r4, r9
	str	r7, [r0, #12]
	str	r5, [r0, #8]
	str	r6, [r0, #4]
	ldr	r3, [r1, #16]
	umull	r7, r6, r3, r2
	adcs	r3, r12, r7
	str	r3, [r0, #16]
	ldr	r3, [r1, #20]
	umull	r7, r5, r3, r2
	adcs	r3, r6, r7
	str	r3, [r0, #20]
	ldr	r1, [r1, #24]
	umull	r3, r7, r1, r2
	adcs	r1, r5, r3
	str	r1, [r0, #24]
	adc	r1, r7, #0
	str	r1, [r0, #28]
	pop	{r4, r5, r6, r7, r8, r9, r11, lr}
	mov	pc, lr
.Lfunc_end22:
	.size	mulPv224x32, .Lfunc_end22-mulPv224x32
	.cantunwind
	.fnend
                                        @ -- End function
	.globl	mcl_fp_mulUnitPre7L             @ -- Begin function mcl_fp_mulUnitPre7L
	.p2align	2
	.type	mcl_fp_mulUnitPre7L,%function
	.code	32                              @ @mcl_fp_mulUnitPre7L
mcl_fp_mulUnitPre7L:
	.fnstart
@ %bb.0:
	.save	{r4, r5, r6, r7, r8, r9, r11, lr}
	push	{r4, r5, r6, r7, r8, r9, r11, lr}
	ldr	r12, [r1]
	ldmib	r1, {r3, lr}
	umull	r7, r6, r12, r2
	ldr	r4, [r1, #12]
	umull	r5, r8, r3, r2
	str	r7, [r0]
	umull	r9, r12, r4, r2
	adds	r7, r6, r5
	umull	r5, r4, lr, r2
	adcs	r7, r8, r5
	umlal	r6, r5, r3, r2
	ldr	r3, [r1, #16]
	adcs	r7, r4, r9
	str	r7, [r0, #12]
	str	r6, [r0, #4]
	umull	r7, r6, r3, r2
	str	r5, [r0, #8]
	adcs	r3, r12, r7
	str	r3, [r0, #16]
	ldr	r3, [r1, #20]
	ldr	r1, [r1, #24]
	umull	r7, r5, r3, r2
	adcs	r3, r6, r7
	str	r3, [r0, #20]
	umull	r3, r7, r1, r2
	adcs	r1, r5, r3
	str	r1, [r0, #24]
	adc	r1, r7, #0
	str	r1, [r0, #28]
	pop	{r4, r5, r6, r7, r8, r9, r11, lr}
	mov	pc, lr
.Lfunc_end23:
	.size	mcl_fp_mulUnitPre7L, .Lfunc_end23-mcl_fp_mulUnitPre7L
	.cantunwind
	.fnend
                                        @ -- End function
	.globl	mcl_fpDbl_mulPre7L              @ -- Begin function mcl_fpDbl_mulPre7L
	.p2align	2
	.type	mcl_fpDbl_mulPre7L,%function
	.code	32                              @ @mcl_fpDbl_mulPre7L
mcl_fpDbl_mulPre7L:
	.fnstart
@ %bb.0:
	.save	{r4, r5, r6, r7, r8, r9, r10, r11, lr}
	push	{r4, r5, r6, r7, r8, r9, r10, r11, lr}
	.pad	#116
	sub	sp, sp, #116
	str	r0, [sp, #100]                  @ 4-byte Spill
	str	r2, [sp, #88]                   @ 4-byte Spill
	ldm	r2, {r0, r10}
	ldr	r4, [r2, #8]
	ldr	r9, [r2, #12]
	ldr	r2, [r1, #8]
	ldr	lr, [r1]
	str	r2, [sp, #108]                  @ 4-byte Spill
	ldr	r5, [r1, #12]
	ldr	r6, [r1, #16]
	ldr	r2, [r1, #20]
	ldr	r12, [r1, #4]
	ldr	r1, [r1, #24]
	str	r1, [sp, #104]                  @ 4-byte Spill
	str	r5, [sp, #96]                   @ 4-byte Spill
	umull	r3, r7, r1, r0
	str	r6, [sp, #112]                  @ 4-byte Spill
	str	r2, [sp, #92]                   @ 4-byte Spill
	str	lr, [sp, #84]                   @ 4-byte Spill
	str	r3, [sp, #72]                   @ 4-byte Spill
	umull	r3, r1, r2, r0
	str	r7, [sp, #76]                   @ 4-byte Spill
	umull	r8, r7, r5, r0
	str	r1, [sp, #68]                   @ 4-byte Spill
	str	r3, [sp, #64]                   @ 4-byte Spill
	umull	r11, r1, r6, r0
	ldr	r3, [sp, #108]                  @ 4-byte Reload
	umull	r2, r5, r12, r0
	str	r1, [sp, #60]                   @ 4-byte Spill
	umull	r6, r1, lr, r0
	str	r6, [sp, #80]                   @ 4-byte Spill
	mov	r6, lr
	adds	r2, r1, r2
	umull	r2, lr, r3, r0
	adcs	r5, r5, r2
	umlal	r1, r2, r12, r0
	adcs	r8, lr, r8
	adcs	r7, r7, r11
	str	r7, [sp, #48]                   @ 4-byte Spill
	ldr	r7, [sp, #64]                   @ 4-byte Reload
	ldr	r5, [sp, #60]                   @ 4-byte Reload
	adcs	r5, r5, r7
	str	r5, [sp, #56]                   @ 4-byte Spill
	ldr	r7, [sp, #72]                   @ 4-byte Reload
	ldr	r5, [sp, #68]                   @ 4-byte Reload
	adcs	r5, r5, r7
	ldr	r7, [sp, #76]                   @ 4-byte Reload
	str	r5, [sp, #64]                   @ 4-byte Spill
	adc	r5, r7, #0
	str	r5, [sp, #68]                   @ 4-byte Spill
	umull	r0, r5, r10, r3
	umull	r11, r3, r10, r6
	str	r5, [sp, #72]                   @ 4-byte Spill
	str	r3, [sp, #60]                   @ 4-byte Spill
	adds	r1, r1, r11
	str	r1, [sp, #76]                   @ 4-byte Spill
	umull	r1, r3, r10, r12
	str	r3, [sp, #52]                   @ 4-byte Spill
	ldr	r3, [sp, #96]                   @ 4-byte Reload
	adcs	r7, r2, r1
	adcs	r0, r8, r0
	str	r0, [sp, #40]                   @ 4-byte Spill
	umull	r2, r0, r10, r3
	str	r0, [sp, #44]                   @ 4-byte Spill
	ldr	r0, [sp, #48]                   @ 4-byte Reload
	adcs	r8, r0, r2
	ldr	r0, [sp, #112]                  @ 4-byte Reload
	ldr	r2, [sp, #60]                   @ 4-byte Reload
	umull	r5, r1, r10, r0
	ldr	r0, [sp, #56]                   @ 4-byte Reload
	str	r1, [sp, #48]                   @ 4-byte Spill
	adcs	r5, r0, r5
	ldr	r0, [sp, #92]                   @ 4-byte Reload
	ldr	r1, [sp, #104]                  @ 4-byte Reload
	umull	r6, lr, r10, r0
	ldr	r0, [sp, #64]                   @ 4-byte Reload
	adcs	r6, r0, r6
	umull	r11, r0, r10, r1
	ldr	r1, [sp, #68]                   @ 4-byte Reload
	ldr	r10, [sp, #92]                  @ 4-byte Reload
	adcs	r11, r1, r11
	mov	r1, #0
	adc	r1, r1, #0
	adds	r2, r7, r2
	str	r2, [sp, #32]                   @ 4-byte Spill
	ldr	r2, [sp, #52]                   @ 4-byte Reload
	ldr	r7, [sp, #40]                   @ 4-byte Reload
	adcs	r2, r7, r2
	str	r2, [sp, #28]                   @ 4-byte Spill
	ldr	r2, [sp, #72]                   @ 4-byte Reload
	adcs	r2, r8, r2
	str	r2, [sp, #24]                   @ 4-byte Spill
	ldr	r2, [sp, #44]                   @ 4-byte Reload
	adcs	r2, r5, r2
	str	r2, [sp, #60]                   @ 4-byte Spill
	ldr	r2, [sp, #48]                   @ 4-byte Reload
	adcs	r2, r6, r2
	str	r2, [sp, #56]                   @ 4-byte Spill
	adcs	r2, r11, lr
	str	r2, [sp, #52]                   @ 4-byte Spill
	adc	r0, r1, r0
	ldr	r1, [sp, #84]                   @ 4-byte Reload
	str	r0, [sp, #48]                   @ 4-byte Spill
	umull	r0, r2, r9, r12
	ldr	r11, [sp, #112]                 @ 4-byte Reload
	mov	lr, r3
	umull	r6, r7, r9, r1
	str	r6, [sp, #64]                   @ 4-byte Spill
	adds	r0, r7, r0
	ldr	r0, [sp, #108]                  @ 4-byte Reload
	umull	r8, r6, r9, r0
	adcs	r2, r2, r8
	umlal	r7, r8, r9, r12
	umull	r2, r5, r9, r3
	ldr	r3, [sp, #104]                  @ 4-byte Reload
	adcs	r2, r6, r2
	str	r2, [sp, #72]                   @ 4-byte Spill
	umull	r2, r6, r9, r11
	adcs	r2, r5, r2
	str	r2, [sp, #68]                   @ 4-byte Spill
	umull	r2, r5, r9, r10
	adcs	r2, r6, r2
	str	r2, [sp, #44]                   @ 4-byte Spill
	umull	r2, r6, r9, r3
	adcs	r2, r5, r2
	str	r2, [sp, #40]                   @ 4-byte Spill
	adc	r2, r6, #0
	str	r2, [sp, #36]                   @ 4-byte Spill
	umull	r2, r5, r4, r12
	str	r5, [sp, #16]                   @ 4-byte Spill
	umull	r6, r5, r4, r1
	str	r6, [sp, #20]                   @ 4-byte Spill
	adds	r2, r5, r2
	umull	r6, r2, r4, r0
	ldr	r0, [sp, #16]                   @ 4-byte Reload
	adcs	r1, r0, r6
	umlal	r5, r6, r4, r12
	umull	r1, r0, r4, lr
	adcs	r1, r2, r1
	str	r1, [sp, #16]                   @ 4-byte Spill
	umull	r2, r1, r4, r11
	adcs	r0, r0, r2
	str	r0, [sp, #12]                   @ 4-byte Spill
	umull	r2, r0, r4, r10
	adcs	r11, r1, r2
	umull	r2, r1, r4, r3
	ldr	r3, [sp, #80]                   @ 4-byte Reload
	adcs	lr, r0, r2
	ldr	r0, [sp, #100]                  @ 4-byte Reload
	ldr	r2, [sp, #32]                   @ 4-byte Reload
	adc	r1, r1, #0
	str	r3, [r0]
	ldr	r3, [sp, #20]                   @ 4-byte Reload
	adds	r4, r3, r2
	ldr	r2, [sp, #28]                   @ 4-byte Reload
	ldr	r3, [sp, #76]                   @ 4-byte Reload
	adcs	r5, r5, r2
	ldr	r2, [sp, #24]                   @ 4-byte Reload
	stmib	r0, {r3, r4}
	adcs	r2, r6, r2
	str	r2, [sp, #80]                   @ 4-byte Spill
	ldr	r3, [sp, #60]                   @ 4-byte Reload
	ldr	r2, [sp, #16]                   @ 4-byte Reload
	adcs	r4, r2, r3
	ldr	r3, [sp, #56]                   @ 4-byte Reload
	ldr	r2, [sp, #12]                   @ 4-byte Reload
	adcs	r6, r2, r3
	ldr	r3, [sp, #52]                   @ 4-byte Reload
	ldr	r2, [sp, #48]                   @ 4-byte Reload
	adcs	r3, r11, r3
	ldr	r11, [sp, #104]                 @ 4-byte Reload
	adcs	r2, lr, r2
	adc	lr, r1, #0
	ldr	r1, [sp, #64]                   @ 4-byte Reload
	adds	r5, r1, r5
	str	r5, [r0, #12]
	ldr	r0, [sp, #80]                   @ 4-byte Reload
	adcs	r0, r7, r0
	str	r0, [sp, #56]                   @ 4-byte Spill
	adcs	r0, r8, r4
	str	r0, [sp, #80]                   @ 4-byte Spill
	ldr	r0, [sp, #72]                   @ 4-byte Reload
	ldr	r8, [sp, #84]                   @ 4-byte Reload
	adcs	r0, r0, r6
	str	r0, [sp, #76]                   @ 4-byte Spill
	ldr	r0, [sp, #68]                   @ 4-byte Reload
	adcs	r0, r0, r3
	str	r0, [sp, #72]                   @ 4-byte Spill
	ldr	r0, [sp, #44]                   @ 4-byte Reload
	adcs	r0, r0, r2
	str	r0, [sp, #68]                   @ 4-byte Spill
	ldr	r0, [sp, #40]                   @ 4-byte Reload
	adcs	r0, r0, lr
	str	r0, [sp, #64]                   @ 4-byte Spill
	ldr	r0, [sp, #36]                   @ 4-byte Reload
	adc	r0, r0, #0
	str	r0, [sp, #60]                   @ 4-byte Spill
	ldr	r0, [sp, #88]                   @ 4-byte Reload
	ldr	r0, [r0, #16]
	umull	r2, r1, r0, r11
	umull	r3, lr, r0, r12
	str	r2, [sp, #48]                   @ 4-byte Spill
	str	r1, [sp, #52]                   @ 4-byte Spill
	umull	r2, r1, r0, r10
	str	r1, [sp, #44]                   @ 4-byte Spill
	ldr	r1, [sp, #112]                  @ 4-byte Reload
	str	r2, [sp, #40]                   @ 4-byte Spill
	umull	r10, r2, r0, r1
	ldr	r1, [sp, #96]                   @ 4-byte Reload
	umull	r5, r6, r0, r1
	ldr	r1, [sp, #108]                  @ 4-byte Reload
	str	r2, [sp, #36]                   @ 4-byte Spill
	umull	r2, r4, r0, r1
	umull	r9, r1, r0, r8
	adds	r7, r1, r3
	ldr	r3, [sp, #40]                   @ 4-byte Reload
	adcs	r7, lr, r2
	umlal	r1, r2, r0, r12
	adcs	r7, r4, r5
	ldr	r5, [sp, #36]                   @ 4-byte Reload
	adcs	r6, r6, r10
	ldr	r4, [sp, #44]                   @ 4-byte Reload
	adcs	r5, r5, r3
	ldr	r3, [sp, #48]                   @ 4-byte Reload
	ldr	r0, [sp, #80]                   @ 4-byte Reload
	adcs	lr, r4, r3
	ldr	r3, [sp, #52]                   @ 4-byte Reload
	adc	r10, r3, #0
	ldr	r3, [sp, #56]                   @ 4-byte Reload
	adds	r4, r9, r3
	ldr	r3, [sp, #100]                  @ 4-byte Reload
	adcs	r0, r1, r0
	str	r0, [sp, #80]                   @ 4-byte Spill
	ldr	r0, [sp, #76]                   @ 4-byte Reload
	ldr	r1, [sp, #88]                   @ 4-byte Reload
	adcs	r0, r2, r0
	str	r0, [sp, #76]                   @ 4-byte Spill
	ldr	r0, [sp, #72]                   @ 4-byte Reload
	str	r4, [r3, #16]
	adcs	r0, r7, r0
	str	r0, [sp, #72]                   @ 4-byte Spill
	ldr	r0, [sp, #68]                   @ 4-byte Reload
	ldr	r7, [sp, #108]                  @ 4-byte Reload
	adcs	r0, r6, r0
	str	r0, [sp, #68]                   @ 4-byte Spill
	ldr	r0, [sp, #64]                   @ 4-byte Reload
	ldr	r6, [r1, #24]
	adcs	r0, r5, r0
	str	r0, [sp, #64]                   @ 4-byte Spill
	ldr	r0, [sp, #60]                   @ 4-byte Reload
	umull	r3, r2, r6, r8
	adcs	r0, lr, r0
	str	r0, [sp, #60]                   @ 4-byte Spill
	adc	r0, r10, #0
	str	r0, [sp, #56]                   @ 4-byte Spill
	ldr	r0, [r1, #20]
	umull	r9, r1, r6, r7
	str	r3, [sp, #88]                   @ 4-byte Spill
	mov	r3, r2
	str	r1, [sp, #36]                   @ 4-byte Spill
	ldr	r1, [sp, #96]                   @ 4-byte Reload
	mov	r5, r9
	umlal	r3, r5, r6, r12
	str	r3, [sp, #48]                   @ 4-byte Spill
	umull	r4, r3, r0, r7
	str	r5, [sp, #52]                   @ 4-byte Spill
	str	r3, [sp, #40]                   @ 4-byte Spill
	umull	r3, r10, r0, r8
	str	r4, [sp]                        @ 4-byte Spill
	mov	r7, r4
	ldr	r8, [sp, #92]                   @ 4-byte Reload
	str	r3, [sp, #44]                   @ 4-byte Spill
	umull	r4, r3, r0, r1
	mov	lr, r10
	umlal	lr, r7, r0, r12
	str	r4, [sp, #28]                   @ 4-byte Spill
	str	r3, [sp, #32]                   @ 4-byte Spill
	umull	r4, r3, r0, r12
	str	r4, [sp, #20]                   @ 4-byte Spill
	str	r3, [sp, #24]                   @ 4-byte Spill
	umull	r4, r3, r6, r11
	str	r3, [sp, #16]                   @ 4-byte Spill
	umull	r5, r3, r6, r8
	str	r4, [sp, #84]                   @ 4-byte Spill
	str	r3, [sp, #12]                   @ 4-byte Spill
	ldr	r3, [sp, #112]                  @ 4-byte Reload
	str	r5, [sp, #8]                    @ 4-byte Spill
	umull	r4, r5, r6, r3
	str	r4, [sp, #108]                  @ 4-byte Spill
	str	r5, [sp, #4]                    @ 4-byte Spill
	umull	r5, r4, r6, r1
	umull	r11, r1, r6, r12
	adds	r2, r2, r11
	adcs	r1, r1, r9
	ldr	r2, [sp, #4]                    @ 4-byte Reload
	ldr	r1, [sp, #36]                   @ 4-byte Reload
	adcs	r11, r1, r5
	ldr	r1, [sp, #108]                  @ 4-byte Reload
	adcs	r1, r4, r1
	str	r1, [sp, #108]                  @ 4-byte Spill
	ldr	r1, [sp, #8]                    @ 4-byte Reload
	ldr	r4, [sp, #104]                  @ 4-byte Reload
	adcs	r1, r2, r1
	str	r1, [sp, #96]                   @ 4-byte Spill
	ldr	r1, [sp, #84]                   @ 4-byte Reload
	ldr	r2, [sp, #12]                   @ 4-byte Reload
	adcs	r1, r2, r1
	str	r1, [sp, #84]                   @ 4-byte Spill
	ldr	r1, [sp, #16]                   @ 4-byte Reload
	ldr	r2, [sp]                        @ 4-byte Reload
	adc	r5, r1, #0
	ldr	r1, [sp, #20]                   @ 4-byte Reload
	adds	r6, r10, r1
	ldr	r1, [sp, #24]                   @ 4-byte Reload
	adcs	r6, r1, r2
	ldr	r1, [sp, #40]                   @ 4-byte Reload
	ldr	r2, [sp, #28]                   @ 4-byte Reload
	adcs	r12, r1, r2
	umull	r1, r2, r0, r3
	ldr	r3, [sp, #32]                   @ 4-byte Reload
	adcs	r9, r3, r1
	umull	r3, r6, r0, r8
	adcs	r2, r2, r3
	umull	r3, r1, r0, r4
	ldr	r4, [sp, #44]                   @ 4-byte Reload
	adcs	r0, r6, r3
	ldr	r3, [sp, #80]                   @ 4-byte Reload
	adc	r1, r1, #0
	adds	r3, r4, r3
	ldr	r4, [sp, #76]                   @ 4-byte Reload
	adcs	r6, lr, r4
	ldr	r4, [sp, #72]                   @ 4-byte Reload
	adcs	r7, r7, r4
	ldr	r4, [sp, #68]                   @ 4-byte Reload
	adcs	r12, r12, r4
	ldr	r4, [sp, #64]                   @ 4-byte Reload
	adcs	lr, r9, r4
	ldr	r4, [sp, #60]                   @ 4-byte Reload
	adcs	r2, r2, r4
	ldr	r4, [sp, #56]                   @ 4-byte Reload
	adcs	r9, r0, r4
	ldr	r0, [sp, #88]                   @ 4-byte Reload
	adc	r1, r1, #0
	ldr	r4, [sp, #100]                  @ 4-byte Reload
	adds	r6, r0, r6
	ldr	r0, [sp, #48]                   @ 4-byte Reload
	adcs	r7, r0, r7
	ldr	r0, [sp, #52]                   @ 4-byte Reload
	adcs	r0, r0, r12
	add	r12, r4, #20
	stm	r12, {r3, r6, r7}
	adcs	r3, r11, lr
	ldr	r7, [sp, #108]                  @ 4-byte Reload
	ldr	r6, [sp, #84]                   @ 4-byte Reload
	adcs	r2, r7, r2
	ldr	r7, [sp, #96]                   @ 4-byte Reload
	str	r0, [r4, #32]
	adcs	r7, r7, r9
	str	r3, [r4, #36]
	adcs	r1, r6, r1
	str	r2, [r4, #40]
	adc	r6, r5, #0
	str	r7, [r4, #44]
	str	r1, [r4, #48]
	str	r6, [r4, #52]
	add	sp, sp, #116
	pop	{r4, r5, r6, r7, r8, r9, r10, r11, lr}
	mov	pc, lr
.Lfunc_end24:
	.size	mcl_fpDbl_mulPre7L, .Lfunc_end24-mcl_fpDbl_mulPre7L
	.cantunwind
	.fnend
                                        @ -- End function
	.globl	mcl_fpDbl_sqrPre7L              @ -- Begin function mcl_fpDbl_sqrPre7L
	.p2align	2
	.type	mcl_fpDbl_sqrPre7L,%function
	.code	32                              @ @mcl_fpDbl_sqrPre7L
mcl_fpDbl_sqrPre7L:
	.fnstart
@ %bb.0:
	.save	{r4, r5, r6, r7, r8, r9, r10, r11, lr}
	push	{r4, r5, r6, r7, r8, r9, r10, r11, lr}
	.pad	#212
	sub	sp, sp, #212
	ldr	r11, [r1]
	ldmib	r1, {r2, r3}
	ldr	r12, [r1, #24]
	str	r0, [sp, #120]                  @ 4-byte Spill
	ldr	r10, [r1, #12]
	umull	r5, r0, r12, r11
	ldr	r4, [r1, #16]
	ldr	lr, [r1, #20]
	str	r11, [sp, #164]                 @ 4-byte Spill
	umull	r6, r1, r12, r2
	str	r3, [sp, #8]                    @ 4-byte Spill
	str	r5, [sp, #188]                  @ 4-byte Spill
	str	r0, [sp, #176]                  @ 4-byte Spill
	str	r1, [sp, #96]                   @ 4-byte Spill
	adds	r5, r0, r6
	str	r6, [sp, #72]                   @ 4-byte Spill
	umull	r5, r0, r12, r3
	str	r5, [sp, #208]                  @ 4-byte Spill
	adcs	r5, r1, r5
	str	r0, [sp, #68]                   @ 4-byte Spill
	umull	r5, r1, r12, r10
	str	r5, [sp, #192]                  @ 4-byte Spill
	adcs	r5, r0, r5
	str	r5, [sp, #160]                  @ 4-byte Spill
	umull	r5, r0, r12, r4
	str	r1, [sp, #168]                  @ 4-byte Spill
	str	r5, [sp, #204]                  @ 4-byte Spill
	adcs	r5, r1, r5
	umull	r6, r1, r12, lr
	str	r5, [sp, #156]                  @ 4-byte Spill
	str	r0, [sp, #100]                  @ 4-byte Spill
	str	r1, [sp, #196]                  @ 4-byte Spill
	adcs	r5, r0, r6
	str	r5, [sp, #152]                  @ 4-byte Spill
	umull	r8, r5, r12, r12
	adcs	r7, r1, r8
	umull	r0, r1, lr, r11
	adc	r5, r5, #0
	str	r7, [sp, #148]                  @ 4-byte Spill
	str	r5, [sp, #144]                  @ 4-byte Spill
	umull	r5, r7, lr, r2
	str	r0, [sp, #184]                  @ 4-byte Spill
	str	r1, [sp, #172]                  @ 4-byte Spill
	umull	r0, r8, lr, r3
	str	r5, [sp, #40]                   @ 4-byte Spill
	adds	r5, r1, r5
	str	r7, [sp, #36]                   @ 4-byte Spill
	str	r0, [sp, #200]                  @ 4-byte Spill
	adcs	r5, r7, r0
	umull	r1, r0, lr, r10
	str	r8, [sp, #52]                   @ 4-byte Spill
	umull	r9, r7, lr, lr
	str	r1, [sp, #84]                   @ 4-byte Spill
	adcs	r5, r8, r1
	umull	r8, r1, lr, r4
	str	r5, [sp, #140]                  @ 4-byte Spill
	str	r0, [sp, #80]                   @ 4-byte Spill
	str	r1, [sp, #104]                  @ 4-byte Spill
	adcs	r5, r0, r8
	str	r5, [sp, #136]                  @ 4-byte Spill
	adcs	r5, r1, r9
	ldr	r0, [sp, #196]                  @ 4-byte Reload
	str	r5, [sp, #132]                  @ 4-byte Spill
	adcs	r5, r7, r6
	str	r5, [sp, #128]                  @ 4-byte Spill
	adc	r5, r0, #0
	umull	r6, r9, r4, r2
	str	r5, [sp, #124]                  @ 4-byte Spill
	umull	r5, r1, r4, r11
	str	r6, [sp, #24]                   @ 4-byte Spill
	str	r9, [sp, #20]                   @ 4-byte Spill
	str	r1, [sp, #32]                   @ 4-byte Spill
	adds	r7, r1, r6
	umull	r1, r0, r4, r3
	str	r5, [sp, #180]                  @ 4-byte Spill
	str	r1, [sp, #196]                  @ 4-byte Spill
	adcs	r7, r9, r1
	umull	r5, r9, r4, r4
	umull	r7, r6, r4, r10
	adcs	r1, r0, r7
	str	r1, [sp, #116]                  @ 4-byte Spill
	adcs	r1, r6, r5
	str	r1, [sp, #112]                  @ 4-byte Spill
	adcs	r1, r9, r8
	str	r1, [sp, #108]                  @ 4-byte Spill
	ldr	r1, [sp, #204]                  @ 4-byte Reload
	umull	r8, r9, r10, r2
	ldr	r5, [sp, #104]                  @ 4-byte Reload
	adcs	r1, r5, r1
	str	r1, [sp, #104]                  @ 4-byte Spill
	ldr	r1, [sp, #100]                  @ 4-byte Reload
	str	r8, [sp, #28]                   @ 4-byte Spill
	adc	r1, r1, #0
	str	r1, [sp, #100]                  @ 4-byte Spill
	umull	r5, r1, r10, r11
	str	r9, [sp]                        @ 4-byte Spill
	str	r5, [sp, #44]                   @ 4-byte Spill
	str	r1, [sp, #16]                   @ 4-byte Spill
	adds	r5, r1, r8
	umull	r1, r8, r10, r3
	str	r1, [sp, #204]                  @ 4-byte Spill
	adcs	r5, r9, r1
	umull	r5, r9, r10, r10
	adcs	r5, r8, r5
	str	r5, [sp, #92]                   @ 4-byte Spill
	adcs	r5, r9, r7
	str	r5, [sp, #88]                   @ 4-byte Spill
	ldr	r5, [sp, #84]                   @ 4-byte Reload
	umull	r7, r9, r3, r11
	adcs	r5, r6, r5
	str	r5, [sp, #84]                   @ 4-byte Spill
	ldr	r5, [sp, #192]                  @ 4-byte Reload
	ldr	r6, [sp, #80]                   @ 4-byte Reload
	str	r9, [sp, #12]                   @ 4-byte Spill
	adcs	r5, r6, r5
	str	r5, [sp, #80]                   @ 4-byte Spill
	ldr	r5, [sp, #168]                  @ 4-byte Reload
	str	r7, [sp, #168]                  @ 4-byte Spill
	adc	r5, r5, #0
	str	r5, [sp, #76]                   @ 4-byte Spill
	umull	r5, r6, r3, r2
	adds	r7, r9, r5
	umull	r7, r9, r3, r3
	str	r7, [sp, #192]                  @ 4-byte Spill
	adcs	r11, r6, r7
	ldr	r7, [sp, #200]                  @ 4-byte Reload
	adcs	r1, r9, r1
	str	r1, [sp, #64]                   @ 4-byte Spill
	ldr	r1, [sp, #196]                  @ 4-byte Reload
	adcs	r3, r8, r1
	str	r3, [sp, #60]                   @ 4-byte Spill
	adcs	r3, r0, r7
	str	r3, [sp, #56]                   @ 4-byte Spill
	mov	r3, r7
	ldr	r0, [sp, #208]                  @ 4-byte Reload
	ldr	r7, [sp, #52]                   @ 4-byte Reload
	adcs	r7, r7, r0
	str	r7, [sp, #52]                   @ 4-byte Spill
	ldr	r7, [sp, #68]                   @ 4-byte Reload
	adc	r7, r7, #0
	str	r7, [sp, #48]                   @ 4-byte Spill
	umull	r9, r7, r2, r2
	str	r7, [sp, #68]                   @ 4-byte Spill
	ldr	r7, [sp, #164]                  @ 4-byte Reload
	umull	r8, r11, r2, r7
	str	r8, [sp, #4]                    @ 4-byte Spill
	adds	r7, r11, r9
	ldr	r8, [sp, #32]                   @ 4-byte Reload
	ldr	r7, [sp, #68]                   @ 4-byte Reload
	adcs	r7, r7, r5
	ldr	r7, [sp, #28]                   @ 4-byte Reload
	adcs	r6, r6, r7
	str	r6, [sp, #28]                   @ 4-byte Spill
	ldr	r6, [sp, #24]                   @ 4-byte Reload
	ldr	r7, [sp]                        @ 4-byte Reload
	adcs	r6, r7, r6
	str	r6, [sp, #24]                   @ 4-byte Spill
	ldr	r6, [sp, #40]                   @ 4-byte Reload
	ldr	r7, [sp, #20]                   @ 4-byte Reload
	adcs	r6, r7, r6
	str	r6, [sp, #20]                   @ 4-byte Spill
	ldr	r6, [sp, #72]                   @ 4-byte Reload
	ldr	r7, [sp, #36]                   @ 4-byte Reload
	adcs	r6, r7, r6
	str	r6, [sp, #36]                   @ 4-byte Spill
	ldr	r6, [sp, #176]                  @ 4-byte Reload
	ldr	r7, [sp, #168]                  @ 4-byte Reload
	umlal	r6, r0, r12, r2
	str	r0, [sp, #208]                  @ 4-byte Spill
	ldr	r0, [sp, #172]                  @ 4-byte Reload
	str	r6, [sp, #72]                   @ 4-byte Spill
	umlal	r0, r3, lr, r2
	mov	lr, r11
	umlal	lr, r5, r2, r2
	str	r0, [sp, #68]                   @ 4-byte Spill
	mov	r0, r8
	umlal	r0, r1, r4, r2
	str	r3, [sp, #200]                  @ 4-byte Spill
	ldr	r3, [sp, #16]                   @ 4-byte Reload
	mov	r4, r7
	str	r0, [sp, #40]                   @ 4-byte Spill
	mov	r9, r3
	ldr	r0, [sp, #204]                  @ 4-byte Reload
	str	r1, [sp, #196]                  @ 4-byte Spill
	umlal	r9, r0, r10, r2
	ldr	r10, [sp, #12]                  @ 4-byte Reload
	ldr	r1, [sp, #8]                    @ 4-byte Reload
	mov	r12, r10
	str	r0, [sp, #204]                  @ 4-byte Spill
	ldr	r0, [sp, #192]                  @ 4-byte Reload
	umlal	r12, r0, r1, r2
	str	r0, [sp, #192]                  @ 4-byte Spill
	ldr	r0, [sp, #164]                  @ 4-byte Reload
	umull	r1, r6, r0, r0
	str	r1, [sp, #8]                    @ 4-byte Spill
	mov	r1, r6
	umlal	r1, r4, r2, r0
	ldr	r0, [sp, #96]                   @ 4-byte Reload
	ldr	r2, [sp, #4]                    @ 4-byte Reload
	adc	r0, r0, #0
	adds	r6, r6, r2
	str	r0, [sp, #164]                  @ 4-byte Spill
	adcs	r6, r11, r7
	ldr	r6, [sp, #44]                   @ 4-byte Reload
	adcs	r0, r10, r6
	str	r0, [sp, #96]                   @ 4-byte Spill
	ldr	r0, [sp, #180]                  @ 4-byte Reload
	adcs	r10, r3, r0
	ldr	r0, [sp, #184]                  @ 4-byte Reload
	ldr	r3, [sp, #172]                  @ 4-byte Reload
	adcs	r11, r8, r0
	ldr	r0, [sp, #188]                  @ 4-byte Reload
	adcs	r7, r3, r0
	ldr	r0, [sp, #176]                  @ 4-byte Reload
	adc	r3, r0, #0
	adds	r0, r2, r1
	adcs	lr, lr, r4
	ldr	r4, [sp, #120]                  @ 4-byte Reload
	str	r0, [sp, #176]                  @ 4-byte Spill
	ldr	r0, [sp, #8]                    @ 4-byte Reload
	str	r0, [r4]
	ldr	r0, [sp, #96]                   @ 4-byte Reload
	ldr	r1, [sp, #24]                   @ 4-byte Reload
	adcs	r5, r5, r0
	ldr	r0, [sp, #28]                   @ 4-byte Reload
	adcs	r0, r0, r10
	adcs	r2, r1, r11
	ldr	r1, [sp, #20]                   @ 4-byte Reload
	adcs	r10, r1, r7
	ldr	r1, [sp, #36]                   @ 4-byte Reload
	ldr	r7, [sp, #168]                  @ 4-byte Reload
	adcs	r3, r1, r3
	ldr	r1, [sp, #164]                  @ 4-byte Reload
	adc	r1, r1, #0
	adds	r7, r7, lr
	str	r7, [sp, #172]                  @ 4-byte Spill
	adcs	r7, r12, r5
	ldr	r5, [sp, #192]                  @ 4-byte Reload
	adcs	r11, r5, r0
	ldr	r5, [sp, #64]                   @ 4-byte Reload
	ldr	r0, [sp, #52]                   @ 4-byte Reload
	adcs	r2, r5, r2
	ldr	r5, [sp, #60]                   @ 4-byte Reload
	adcs	r10, r5, r10
	ldr	r5, [sp, #56]                   @ 4-byte Reload
	adcs	r5, r5, r3
	adcs	lr, r0, r1
	ldr	r0, [sp, #48]                   @ 4-byte Reload
	ldr	r1, [sp, #204]                  @ 4-byte Reload
	adc	r12, r0, #0
	adds	r0, r6, r7
	str	r0, [sp, #192]                  @ 4-byte Spill
	adcs	r0, r9, r11
	adcs	r3, r1, r2
	ldr	r1, [sp, #92]                   @ 4-byte Reload
	adcs	r2, r1, r10
	ldr	r1, [sp, #88]                   @ 4-byte Reload
	adcs	r5, r1, r5
	ldr	r1, [sp, #84]                   @ 4-byte Reload
	adcs	r6, r1, lr
	ldr	r1, [sp, #80]                   @ 4-byte Reload
	adcs	r7, r1, r12
	ldr	r1, [sp, #76]                   @ 4-byte Reload
	add	r12, r4, #12
	adc	lr, r1, #0
	ldr	r1, [sp, #180]                  @ 4-byte Reload
	adds	r8, r1, r0
	ldr	r0, [sp, #40]                   @ 4-byte Reload
	ldr	r1, [sp, #100]                  @ 4-byte Reload
	adcs	r3, r0, r3
	ldr	r0, [sp, #196]                  @ 4-byte Reload
	adcs	r2, r0, r2
	ldr	r0, [sp, #116]                  @ 4-byte Reload
	adcs	r5, r0, r5
	ldr	r0, [sp, #112]                  @ 4-byte Reload
	adcs	r6, r0, r6
	ldr	r0, [sp, #108]                  @ 4-byte Reload
	adcs	r7, r0, r7
	ldr	r0, [sp, #104]                  @ 4-byte Reload
	adcs	r0, r0, lr
	adc	lr, r1, #0
	ldr	r1, [sp, #184]                  @ 4-byte Reload
	adds	r10, r1, r3
	ldr	r1, [sp, #68]                   @ 4-byte Reload
	adcs	r2, r1, r2
	ldr	r1, [sp, #200]                  @ 4-byte Reload
	adcs	r5, r1, r5
	ldr	r1, [sp, #140]                  @ 4-byte Reload
	adcs	r6, r1, r6
	ldr	r1, [sp, #136]                  @ 4-byte Reload
	adcs	r7, r1, r7
	ldr	r1, [sp, #132]                  @ 4-byte Reload
	adcs	r0, r1, r0
	ldr	r1, [sp, #128]                  @ 4-byte Reload
	adcs	r3, r1, lr
	ldr	r1, [sp, #124]                  @ 4-byte Reload
	adc	lr, r1, #0
	ldr	r1, [sp, #188]                  @ 4-byte Reload
	adds	r2, r1, r2
	ldr	r1, [sp, #72]                   @ 4-byte Reload
	adcs	r5, r1, r5
	ldr	r1, [sp, #208]                  @ 4-byte Reload
	adcs	r6, r1, r6
	ldr	r1, [sp, #176]                  @ 4-byte Reload
	str	r1, [r4, #4]
	ldr	r1, [sp, #172]                  @ 4-byte Reload
	str	r1, [r4, #8]
	ldr	r1, [sp, #192]                  @ 4-byte Reload
	stm	r12, {r1, r8, r10}
	ldr	r1, [sp, #160]                  @ 4-byte Reload
	str	r2, [r4, #24]
	ldr	r2, [sp, #156]                  @ 4-byte Reload
	adcs	r1, r1, r7
	ldr	r7, [sp, #144]                  @ 4-byte Reload
	adcs	r0, r2, r0
	ldr	r2, [sp, #152]                  @ 4-byte Reload
	str	r1, [r4, #36]
	add	r1, r4, #40
	adcs	r2, r2, r3
	ldr	r3, [sp, #148]                  @ 4-byte Reload
	str	r5, [r4, #28]
	adcs	r3, r3, lr
	str	r6, [r4, #32]
	adc	r7, r7, #0
	stm	r1, {r0, r2, r3, r7}
	add	sp, sp, #212
	pop	{r4, r5, r6, r7, r8, r9, r10, r11, lr}
	mov	pc, lr
.Lfunc_end25:
	.size	mcl_fpDbl_sqrPre7L, .Lfunc_end25-mcl_fpDbl_sqrPre7L
	.cantunwind
	.fnend
                                        @ -- End function
	.globl	mcl_fp_mont7L                   @ -- Begin function mcl_fp_mont7L
	.p2align	2
	.type	mcl_fp_mont7L,%function
	.code	32                              @ @mcl_fp_mont7L
mcl_fp_mont7L:
	.fnstart
@ %bb.0:
	.save	{r4, r5, r6, r7, r8, r9, r10, r11, lr}
	push	{r4, r5, r6, r7, r8, r9, r10, r11, lr}
	.pad	#132
	sub	sp, sp, #132
	str	r0, [sp, #64]                   @ 4-byte Spill
	mov	r0, r2
	ldr	r7, [r0, #8]
	ldr	r12, [r0, #4]
	ldr	r0, [r0, #12]
	str	r2, [sp, #68]                   @ 4-byte Spill
	str	r0, [sp, #60]                   @ 4-byte Spill
	ldr	r0, [r1]
	ldr	r2, [r2]
	ldr	r4, [r3, #-4]
	str	r0, [sp, #108]                  @ 4-byte Spill
	umull	r6, r8, r0, r2
	ldr	r5, [r3, #8]
	str	r4, [sp, #116]                  @ 4-byte Spill
	str	r7, [sp, #56]                   @ 4-byte Spill
	ldr	r7, [r3]
	str	r6, [sp, #52]                   @ 4-byte Spill
	str	r5, [sp, #128]                  @ 4-byte Spill
	mul	r0, r4, r6
	ldr	r9, [r3, #4]
	ldr	lr, [r1, #4]
	ldr	r10, [r1, #8]
	ldr	r11, [r1, #12]
	str	r11, [sp, #88]                  @ 4-byte Spill
	str	r7, [sp, #112]                  @ 4-byte Spill
	umull	r6, r4, r0, r5
	str	lr, [sp, #72]                   @ 4-byte Spill
	str	r10, [sp, #80]                  @ 4-byte Spill
	str	r9, [sp, #76]                   @ 4-byte Spill
	str	r4, [sp, #36]                   @ 4-byte Spill
	umull	r4, r5, r0, r7
	str	r6, [sp, #12]                   @ 4-byte Spill
	str	r4, [sp, #48]                   @ 4-byte Spill
	str	r5, [sp, #8]                    @ 4-byte Spill
	mov	r4, r5
	mov	r5, r6
	umlal	r4, r5, r0, r9
	str	r4, [sp, #40]                   @ 4-byte Spill
	ldr	r4, [r1, #24]
	str	r5, [sp, #44]                   @ 4-byte Spill
	str	r4, [sp, #96]                   @ 4-byte Spill
	umull	r6, r5, r4, r2
	ldr	r4, [r1, #20]
	ldr	r1, [r1, #16]
	str	r4, [sp, #92]                   @ 4-byte Spill
	str	r1, [sp, #84]                   @ 4-byte Spill
	str	r6, [sp, #120]                  @ 4-byte Spill
	str	r5, [sp, #124]                  @ 4-byte Spill
	umull	r6, r5, r4, r2
	str	r5, [sp, #104]                  @ 4-byte Spill
	umull	r4, r5, r1, r2
	str	r6, [sp, #100]                  @ 4-byte Spill
	str	r5, [sp, #24]                   @ 4-byte Spill
	umull	r6, r5, r11, r2
	umull	r11, r1, lr, r2
	ldr	lr, [r3, #24]
	adds	r7, r8, r11
	umull	r7, r11, r10, r2
	adcs	r1, r1, r7
	adcs	r1, r11, r6
	str	r1, [sp, #32]                   @ 4-byte Spill
	adcs	r1, r5, r4
	str	r1, [sp, #28]                   @ 4-byte Spill
	ldr	r1, [sp, #100]                  @ 4-byte Reload
	ldr	r6, [sp, #24]                   @ 4-byte Reload
	ldr	r5, [r3, #12]
	adcs	r1, r6, r1
	str	r1, [sp, #24]                   @ 4-byte Spill
	ldr	r1, [sp, #120]                  @ 4-byte Reload
	ldr	r6, [sp, #104]                  @ 4-byte Reload
	ldr	r4, [sp, #8]                    @ 4-byte Reload
	adcs	r1, r6, r1
	str	r1, [sp, #20]                   @ 4-byte Spill
	ldr	r1, [sp, #124]                  @ 4-byte Reload
	ldr	r6, [r3, #20]
	adc	r1, r1, #0
	str	r1, [sp, #16]                   @ 4-byte Spill
	ldr	r1, [r3, #16]
	umull	r3, r10, r0, r9
	str	r1, [sp, #120]                  @ 4-byte Spill
	str	r5, [sp, #124]                  @ 4-byte Spill
	umull	r11, r9, r0, r1
	ldr	r1, [sp, #12]                   @ 4-byte Reload
	str	r6, [sp, #104]                  @ 4-byte Spill
	adds	r3, r4, r3
	adcs	r1, r10, r1
	ldr	r4, [sp, #36]                   @ 4-byte Reload
	umull	r1, r3, r0, r5
	str	lr, [sp, #100]                  @ 4-byte Spill
	adcs	r1, r4, r1
	ldr	r4, [sp, #48]                   @ 4-byte Reload
	adcs	r11, r3, r11
	umull	r5, r3, r0, r6
	adcs	r10, r9, r5
	umull	r6, r5, r0, lr
	adcs	r0, r3, r6
	ldr	r3, [sp, #72]                   @ 4-byte Reload
	adc	r5, r5, #0
	mov	r6, #0
	umlal	r8, r7, r3, r2
	ldr	r2, [sp, #52]                   @ 4-byte Reload
	adds	r2, r4, r2
	ldr	r2, [sp, #40]                   @ 4-byte Reload
	adcs	r2, r2, r8
	str	r2, [sp, #52]                   @ 4-byte Spill
	ldr	r2, [sp, #44]                   @ 4-byte Reload
	adcs	r2, r2, r7
	str	r2, [sp, #48]                   @ 4-byte Spill
	ldr	r2, [sp, #32]                   @ 4-byte Reload
	adcs	r1, r1, r2
	str	r1, [sp, #44]                   @ 4-byte Spill
	ldr	r1, [sp, #28]                   @ 4-byte Reload
	adcs	r1, r11, r1
	str	r1, [sp, #40]                   @ 4-byte Spill
	ldr	r1, [sp, #24]                   @ 4-byte Reload
	ldr	r11, [sp, #108]                 @ 4-byte Reload
	adcs	r1, r10, r1
	str	r1, [sp, #36]                   @ 4-byte Spill
	ldr	r1, [sp, #20]                   @ 4-byte Reload
	adcs	r0, r0, r1
	str	r0, [sp, #32]                   @ 4-byte Spill
	ldr	r0, [sp, #16]                   @ 4-byte Reload
	adcs	r0, r5, r0
	str	r0, [sp, #28]                   @ 4-byte Spill
	adc	r0, r6, #0
	str	r0, [sp, #24]                   @ 4-byte Spill
	ldr	r0, [sp, #96]                   @ 4-byte Reload
	umull	r2, r1, r12, r0
	ldr	r0, [sp, #92]                   @ 4-byte Reload
	str	r1, [sp, #20]                   @ 4-byte Spill
	umull	r9, r1, r12, r0
	ldr	r0, [sp, #84]                   @ 4-byte Reload
	str	r2, [sp, #16]                   @ 4-byte Spill
	umull	r2, lr, r12, r3
	str	r1, [sp, #8]                    @ 4-byte Spill
	umull	r7, r8, r12, r0
	ldr	r0, [sp, #88]                   @ 4-byte Reload
	umull	r5, r6, r12, r0
	ldr	r0, [sp, #80]                   @ 4-byte Reload
	umull	r1, r4, r12, r0
	umull	r10, r0, r12, r11
	str	r10, [sp, #12]                  @ 4-byte Spill
	adds	r2, r0, r2
	adcs	r2, lr, r1
	umlal	r0, r1, r12, r3
	adcs	lr, r4, r5
	adcs	r7, r6, r7
	ldr	r2, [sp, #16]                   @ 4-byte Reload
	adcs	r6, r8, r9
	ldr	r4, [sp, #8]                    @ 4-byte Reload
	ldr	r3, [sp, #52]                   @ 4-byte Reload
	adcs	r4, r4, r2
	ldr	r2, [sp, #20]                   @ 4-byte Reload
	adc	r5, r2, #0
	ldr	r2, [sp, #12]                   @ 4-byte Reload
	adds	r3, r3, r2
	ldr	r2, [sp, #48]                   @ 4-byte Reload
	str	r3, [sp, #20]                   @ 4-byte Spill
	adcs	r0, r2, r0
	str	r0, [sp, #52]                   @ 4-byte Spill
	ldr	r0, [sp, #44]                   @ 4-byte Reload
	adcs	r0, r0, r1
	str	r0, [sp, #48]                   @ 4-byte Spill
	ldr	r0, [sp, #40]                   @ 4-byte Reload
	ldr	r1, [sp, #116]                  @ 4-byte Reload
	adcs	r0, r0, lr
	str	r0, [sp, #44]                   @ 4-byte Spill
	ldr	r0, [sp, #36]                   @ 4-byte Reload
	adcs	r0, r0, r7
	str	r0, [sp, #40]                   @ 4-byte Spill
	ldr	r0, [sp, #32]                   @ 4-byte Reload
	ldr	r7, [sp, #100]                  @ 4-byte Reload
	adcs	r0, r0, r6
	str	r0, [sp, #36]                   @ 4-byte Spill
	ldr	r0, [sp, #28]                   @ 4-byte Reload
	adcs	r0, r0, r4
	str	r0, [sp, #32]                   @ 4-byte Spill
	ldr	r0, [sp, #24]                   @ 4-byte Reload
	adcs	r0, r0, r5
	str	r0, [sp, #28]                   @ 4-byte Spill
	mov	r0, #0
	adc	r0, r0, #0
	str	r0, [sp, #24]                   @ 4-byte Spill
	mul	r0, r1, r3
	ldr	r1, [sp, #128]                  @ 4-byte Reload
	umull	r12, r2, r0, r1
	ldr	r1, [sp, #112]                  @ 4-byte Reload
	umull	r4, r6, r0, r7
	ldr	r7, [sp, #104]                  @ 4-byte Reload
	str	r2, [sp, #12]                   @ 4-byte Spill
	umull	r2, r3, r0, r1
	ldr	r1, [sp, #76]                   @ 4-byte Reload
	stmib	sp, {r4, r6}                    @ 8-byte Folded Spill
	umull	r10, r6, r0, r7
	ldr	r7, [sp, #120]                  @ 4-byte Reload
	str	r2, [sp, #16]                   @ 4-byte Spill
	mov	r5, r3
	umull	r11, lr, r0, r1
	mov	r2, r12
	str	r6, [sp]                        @ 4-byte Spill
	umull	r8, r9, r0, r7
	ldr	r7, [sp, #124]                  @ 4-byte Reload
	umull	r4, r6, r0, r7
	ldr	r7, [sp]                        @ 4-byte Reload
	umlal	r5, r2, r0, r1
	adds	r0, r3, r11
	adcs	r0, lr, r12
	ldr	r0, [sp, #12]                   @ 4-byte Reload
	ldr	r11, [sp, #108]                 @ 4-byte Reload
	adcs	r12, r0, r4
	ldr	r0, [sp, #4]                    @ 4-byte Reload
	adcs	r1, r6, r8
	ldr	r4, [sp, #20]                   @ 4-byte Reload
	adcs	r3, r9, r10
	ldr	r10, [sp, #56]                  @ 4-byte Reload
	adcs	r7, r7, r0
	ldr	r0, [sp, #8]                    @ 4-byte Reload
	adc	r6, r0, #0
	ldr	r0, [sp, #16]                   @ 4-byte Reload
	adds	r4, r4, r0
	ldr	r4, [sp, #52]                   @ 4-byte Reload
	adcs	r5, r4, r5
	str	r5, [sp, #52]                   @ 4-byte Spill
	ldr	r5, [sp, #48]                   @ 4-byte Reload
	adcs	r2, r5, r2
	str	r2, [sp, #48]                   @ 4-byte Spill
	ldr	r2, [sp, #44]                   @ 4-byte Reload
	adcs	r0, r2, r12
	str	r0, [sp, #44]                   @ 4-byte Spill
	ldr	r0, [sp, #40]                   @ 4-byte Reload
	adcs	r0, r0, r1
	str	r0, [sp, #40]                   @ 4-byte Spill
	ldr	r0, [sp, #36]                   @ 4-byte Reload
	adcs	r0, r0, r3
	str	r0, [sp, #36]                   @ 4-byte Spill
	ldr	r0, [sp, #32]                   @ 4-byte Reload
	ldr	r3, [sp, #72]                   @ 4-byte Reload
	adcs	r0, r0, r7
	str	r0, [sp, #32]                   @ 4-byte Spill
	ldr	r0, [sp, #28]                   @ 4-byte Reload
	adcs	r0, r0, r6
	str	r0, [sp, #28]                   @ 4-byte Spill
	ldr	r0, [sp, #24]                   @ 4-byte Reload
	adc	r0, r0, #0
	str	r0, [sp, #24]                   @ 4-byte Spill
	ldr	r0, [sp, #96]                   @ 4-byte Reload
	umull	r2, r1, r10, r0
	ldr	r0, [sp, #92]                   @ 4-byte Reload
	str	r1, [sp, #20]                   @ 4-byte Spill
	umull	r8, r1, r10, r0
	ldr	r0, [sp, #84]                   @ 4-byte Reload
	str	r2, [sp, #16]                   @ 4-byte Spill
	umull	r2, r12, r10, r3
	str	r1, [sp, #8]                    @ 4-byte Spill
	umull	r6, r7, r10, r0
	ldr	r0, [sp, #88]                   @ 4-byte Reload
	umull	r4, r5, r10, r0
	ldr	r0, [sp, #80]                   @ 4-byte Reload
	umull	r1, lr, r10, r0
	umull	r9, r0, r10, r11
	str	r9, [sp, #12]                   @ 4-byte Spill
	adds	r2, r0, r2
	adcs	r2, r12, r1
	umlal	r0, r1, r10, r3
	adcs	r2, lr, r4
	adcs	r12, r5, r6
	adcs	r6, r7, r8
	ldr	r7, [sp, #16]                   @ 4-byte Reload
	ldr	r5, [sp, #8]                    @ 4-byte Reload
	ldr	r3, [sp, #52]                   @ 4-byte Reload
	adcs	r4, r5, r7
	ldr	r7, [sp, #20]                   @ 4-byte Reload
	adc	r5, r7, #0
	ldr	r7, [sp, #12]                   @ 4-byte Reload
	adds	r3, r3, r7
	ldr	r7, [sp, #48]                   @ 4-byte Reload
	str	r3, [sp, #20]                   @ 4-byte Spill
	adcs	r0, r7, r0
	str	r0, [sp, #56]                   @ 4-byte Spill
	ldr	r0, [sp, #44]                   @ 4-byte Reload
	adcs	r0, r0, r1
	str	r0, [sp, #52]                   @ 4-byte Spill
	ldr	r0, [sp, #40]                   @ 4-byte Reload
	ldr	r1, [sp, #116]                  @ 4-byte Reload
	adcs	r0, r0, r2
	str	r0, [sp, #48]                   @ 4-byte Spill
	ldr	r0, [sp, #36]                   @ 4-byte Reload
	adcs	r0, r0, r12
	str	r0, [sp, #44]                   @ 4-byte Spill
	ldr	r0, [sp, #32]                   @ 4-byte Reload
	adcs	r0, r0, r6
	str	r0, [sp, #40]                   @ 4-byte Spill
	ldr	r0, [sp, #28]                   @ 4-byte Reload
	ldr	r6, [sp, #76]                   @ 4-byte Reload
	adcs	r0, r0, r4
	str	r0, [sp, #36]                   @ 4-byte Spill
	ldr	r0, [sp, #24]                   @ 4-byte Reload
	adcs	r0, r0, r5
	str	r0, [sp, #32]                   @ 4-byte Spill
	mov	r0, #0
	adc	r0, r0, #0
	str	r0, [sp, #28]                   @ 4-byte Spill
	mul	r0, r1, r3
	ldr	r1, [sp, #128]                  @ 4-byte Reload
	umull	r9, r2, r0, r1
	str	r2, [sp, #16]                   @ 4-byte Spill
	ldr	r2, [sp, #112]                  @ 4-byte Reload
	umull	r7, r1, r0, r2
	mov	r2, r9
	str	r7, [sp, #24]                   @ 4-byte Spill
	ldr	r7, [sp, #100]                  @ 4-byte Reload
	mov	r5, r1
	umlal	r5, r2, r0, r6
	umull	r3, r4, r0, r7
	ldr	r7, [sp, #104]                  @ 4-byte Reload
	str	r3, [sp, #8]                    @ 4-byte Spill
	umull	r3, r10, r0, r7
	ldr	r7, [sp, #120]                  @ 4-byte Reload
	str	r4, [sp, #12]                   @ 4-byte Spill
	umull	r12, r8, r0, r7
	ldr	r7, [sp, #124]                  @ 4-byte Reload
	umull	lr, r4, r0, r7
	umull	r11, r7, r0, r6
	adds	r0, r1, r11
	ldr	r11, [sp, #108]                 @ 4-byte Reload
	adcs	r0, r7, r9
	ldr	r0, [sp, #16]                   @ 4-byte Reload
	adcs	lr, r0, lr
	ldr	r0, [sp, #8]                    @ 4-byte Reload
	adcs	r1, r4, r12
	ldr	r4, [sp, #20]                   @ 4-byte Reload
	adcs	r3, r8, r3
	adcs	r7, r10, r0
	ldr	r0, [sp, #12]                   @ 4-byte Reload
	ldr	r10, [sp, #60]                  @ 4-byte Reload
	adc	r6, r0, #0
	ldr	r0, [sp, #24]                   @ 4-byte Reload
	adds	r4, r4, r0
	ldr	r4, [sp, #56]                   @ 4-byte Reload
	adcs	r5, r4, r5
	str	r5, [sp, #56]                   @ 4-byte Spill
	ldr	r5, [sp, #52]                   @ 4-byte Reload
	adcs	r2, r5, r2
	str	r2, [sp, #52]                   @ 4-byte Spill
	ldr	r2, [sp, #48]                   @ 4-byte Reload
	adcs	r0, r2, lr
	str	r0, [sp, #48]                   @ 4-byte Spill
	ldr	r0, [sp, #44]                   @ 4-byte Reload
	adcs	r0, r0, r1
	str	r0, [sp, #44]                   @ 4-byte Spill
	ldr	r0, [sp, #40]                   @ 4-byte Reload
	adcs	r0, r0, r3
	str	r0, [sp, #40]                   @ 4-byte Spill
	ldr	r0, [sp, #36]                   @ 4-byte Reload
	ldr	r3, [sp, #72]                   @ 4-byte Reload
	adcs	r0, r0, r7
	str	r0, [sp, #36]                   @ 4-byte Spill
	ldr	r0, [sp, #32]                   @ 4-byte Reload
	adcs	r0, r0, r6
	str	r0, [sp, #32]                   @ 4-byte Spill
	ldr	r0, [sp, #28]                   @ 4-byte Reload
	adc	r0, r0, #0
	str	r0, [sp, #28]                   @ 4-byte Spill
	ldr	r0, [sp, #96]                   @ 4-byte Reload
	umull	r2, r1, r10, r0
	ldr	r0, [sp, #92]                   @ 4-byte Reload
	str	r1, [sp, #24]                   @ 4-byte Spill
	umull	r8, r1, r10, r0
	ldr	r0, [sp, #84]                   @ 4-byte Reload
	str	r2, [sp, #20]                   @ 4-byte Spill
	umull	r2, r12, r10, r3
	str	r1, [sp, #12]                   @ 4-byte Spill
	umull	r6, r7, r10, r0
	ldr	r0, [sp, #88]                   @ 4-byte Reload
	umull	r4, r5, r10, r0
	ldr	r0, [sp, #80]                   @ 4-byte Reload
	umull	r1, lr, r10, r0
	umull	r9, r0, r10, r11
	str	r9, [sp, #16]                   @ 4-byte Spill
	adds	r2, r0, r2
	adcs	r2, r12, r1
	umlal	r0, r1, r10, r3
	adcs	r2, lr, r4
	adcs	r12, r5, r6
	adcs	r6, r7, r8
	ldr	r7, [sp, #20]                   @ 4-byte Reload
	ldr	r5, [sp, #12]                   @ 4-byte Reload
	ldr	r3, [sp, #56]                   @ 4-byte Reload
	adcs	r4, r5, r7
	ldr	r7, [sp, #24]                   @ 4-byte Reload
	adc	r5, r7, #0
	ldr	r7, [sp, #16]                   @ 4-byte Reload
	adds	r3, r3, r7
	ldr	r7, [sp, #52]                   @ 4-byte Reload
	str	r3, [sp, #24]                   @ 4-byte Spill
	adcs	r0, r7, r0
	str	r0, [sp, #60]                   @ 4-byte Spill
	ldr	r0, [sp, #48]                   @ 4-byte Reload
	adcs	r0, r0, r1
	str	r0, [sp, #56]                   @ 4-byte Spill
	ldr	r0, [sp, #44]                   @ 4-byte Reload
	ldr	r1, [sp, #116]                  @ 4-byte Reload
	adcs	r0, r0, r2
	str	r0, [sp, #52]                   @ 4-byte Spill
	ldr	r0, [sp, #40]                   @ 4-byte Reload
	adcs	r0, r0, r12
	str	r0, [sp, #48]                   @ 4-byte Spill
	ldr	r0, [sp, #36]                   @ 4-byte Reload
	adcs	r0, r0, r6
	str	r0, [sp, #44]                   @ 4-byte Spill
	ldr	r0, [sp, #32]                   @ 4-byte Reload
	ldr	r6, [sp, #76]                   @ 4-byte Reload
	adcs	r0, r0, r4
	str	r0, [sp, #40]                   @ 4-byte Spill
	ldr	r0, [sp, #28]                   @ 4-byte Reload
	adcs	r0, r0, r5
	str	r0, [sp, #36]                   @ 4-byte Spill
	mov	r0, #0
	adc	r0, r0, #0
	str	r0, [sp, #32]                   @ 4-byte Spill
	mul	r0, r1, r3
	ldr	r1, [sp, #128]                  @ 4-byte Reload
	umull	r9, r2, r0, r1
	str	r2, [sp, #20]                   @ 4-byte Spill
	ldr	r2, [sp, #112]                  @ 4-byte Reload
	umull	r7, r1, r0, r2
	mov	r2, r9
	str	r7, [sp, #28]                   @ 4-byte Spill
	ldr	r7, [sp, #100]                  @ 4-byte Reload
	mov	r5, r1
	umlal	r5, r2, r0, r6
	umull	r3, r4, r0, r7
	ldr	r7, [sp, #104]                  @ 4-byte Reload
	str	r3, [sp, #12]                   @ 4-byte Spill
	umull	r3, r10, r0, r7
	ldr	r7, [sp, #120]                  @ 4-byte Reload
	str	r4, [sp, #16]                   @ 4-byte Spill
	umull	r12, r8, r0, r7
	ldr	r7, [sp, #124]                  @ 4-byte Reload
	umull	lr, r4, r0, r7
	umull	r11, r7, r0, r6
	adds	r0, r1, r11
	ldr	r11, [sp, #108]                 @ 4-byte Reload
	adcs	r0, r7, r9
	ldr	r0, [sp, #20]                   @ 4-byte Reload
	adcs	lr, r0, lr
	ldr	r0, [sp, #12]                   @ 4-byte Reload
	adcs	r1, r4, r12
	ldr	r4, [sp, #24]                   @ 4-byte Reload
	adcs	r3, r8, r3
	ldr	r12, [sp, #72]                  @ 4-byte Reload
	adcs	r7, r10, r0
	ldr	r0, [sp, #16]                   @ 4-byte Reload
	adc	r6, r0, #0
	ldr	r0, [sp, #28]                   @ 4-byte Reload
	adds	r4, r4, r0
	ldr	r4, [sp, #60]                   @ 4-byte Reload
	adcs	r5, r4, r5
	str	r5, [sp, #60]                   @ 4-byte Spill
	ldr	r5, [sp, #56]                   @ 4-byte Reload
	adcs	r2, r5, r2
	str	r2, [sp, #56]                   @ 4-byte Spill
	ldr	r2, [sp, #52]                   @ 4-byte Reload
	adcs	r0, r2, lr
	str	r0, [sp, #52]                   @ 4-byte Spill
	ldr	r0, [sp, #48]                   @ 4-byte Reload
	adcs	r0, r0, r1
	str	r0, [sp, #48]                   @ 4-byte Spill
	ldr	r0, [sp, #44]                   @ 4-byte Reload
	ldr	r1, [sp, #96]                   @ 4-byte Reload
	adcs	r0, r0, r3
	str	r0, [sp, #44]                   @ 4-byte Spill
	ldr	r0, [sp, #40]                   @ 4-byte Reload
	adcs	r0, r0, r7
	str	r0, [sp, #40]                   @ 4-byte Spill
	ldr	r0, [sp, #36]                   @ 4-byte Reload
	adcs	r0, r0, r6
	str	r0, [sp, #36]                   @ 4-byte Spill
	ldr	r0, [sp, #32]                   @ 4-byte Reload
	adc	r0, r0, #0
	str	r0, [sp, #32]                   @ 4-byte Spill
	ldr	r0, [sp, #68]                   @ 4-byte Reload
	ldr	r0, [r0, #16]
	umull	r3, r2, r0, r1
	ldr	r1, [sp, #92]                   @ 4-byte Reload
	str	r2, [sp, #28]                   @ 4-byte Spill
	umull	r9, r2, r0, r1
	ldr	r1, [sp, #84]                   @ 4-byte Reload
	str	r3, [sp, #24]                   @ 4-byte Spill
	umull	r3, lr, r0, r12
	str	r2, [sp, #16]                   @ 4-byte Spill
	umull	r7, r8, r0, r1
	ldr	r1, [sp, #88]                   @ 4-byte Reload
	umull	r5, r6, r0, r1
	ldr	r1, [sp, #80]                   @ 4-byte Reload
	umull	r2, r4, r0, r1
	umull	r10, r1, r0, r11
	str	r10, [sp, #20]                  @ 4-byte Spill
	adds	r3, r1, r3
	adcs	r3, lr, r2
	umlal	r1, r2, r0, r12
	adcs	lr, r4, r5
	adcs	r4, r6, r7
	ldr	r3, [sp, #24]                   @ 4-byte Reload
	adcs	r6, r8, r9
	ldr	r5, [sp, #16]                   @ 4-byte Reload
	ldr	r0, [sp, #60]                   @ 4-byte Reload
	adcs	r5, r5, r3
	ldr	r3, [sp, #28]                   @ 4-byte Reload
	adc	r7, r3, #0
	ldr	r3, [sp, #20]                   @ 4-byte Reload
	adds	r3, r0, r3
	ldr	r0, [sp, #56]                   @ 4-byte Reload
	str	r3, [sp, #28]                   @ 4-byte Spill
	adcs	r0, r0, r1
	str	r0, [sp, #60]                   @ 4-byte Spill
	ldr	r0, [sp, #52]                   @ 4-byte Reload
	adcs	r0, r0, r2
	str	r0, [sp, #56]                   @ 4-byte Spill
	ldr	r0, [sp, #48]                   @ 4-byte Reload
	adcs	r0, r0, lr
	str	r0, [sp, #52]                   @ 4-byte Spill
	ldr	r0, [sp, #44]                   @ 4-byte Reload
	adcs	r0, r0, r4
	str	r0, [sp, #48]                   @ 4-byte Spill
	ldr	r0, [sp, #40]                   @ 4-byte Reload
	adcs	r0, r0, r6
	str	r0, [sp, #44]                   @ 4-byte Spill
	ldr	r0, [sp, #36]                   @ 4-byte Reload
	ldr	r6, [sp, #76]                   @ 4-byte Reload
	adcs	r0, r0, r5
	str	r0, [sp, #40]                   @ 4-byte Spill
	ldr	r0, [sp, #32]                   @ 4-byte Reload
	adcs	r0, r0, r7
	str	r0, [sp, #36]                   @ 4-byte Spill
	mov	r0, #0
	adc	r0, r0, #0
	str	r0, [sp, #32]                   @ 4-byte Spill
	ldr	r0, [sp, #116]                  @ 4-byte Reload
	mul	r1, r0, r3
	ldr	r0, [sp, #128]                  @ 4-byte Reload
	umull	r9, r2, r1, r0
	str	r2, [sp, #20]                   @ 4-byte Spill
	ldr	r2, [sp, #112]                  @ 4-byte Reload
	umull	r7, r0, r1, r2
	mov	r2, r9
	str	r7, [sp, #24]                   @ 4-byte Spill
	ldr	r7, [sp, #100]                  @ 4-byte Reload
	mov	r5, r0
	umlal	r5, r2, r1, r6
	umull	r3, r4, r1, r7
	ldr	r7, [sp, #104]                  @ 4-byte Reload
	str	r3, [sp, #12]                   @ 4-byte Spill
	umull	r3, r10, r1, r7
	ldr	r7, [sp, #120]                  @ 4-byte Reload
	str	r4, [sp, #16]                   @ 4-byte Spill
	umull	r12, r8, r1, r7
	ldr	r7, [sp, #124]                  @ 4-byte Reload
	umull	lr, r4, r1, r7
	umull	r11, r7, r1, r6
	adds	r0, r0, r11
	ldr	r11, [sp, #108]                 @ 4-byte Reload
	adcs	r0, r7, r9
	ldr	r0, [sp, #20]                   @ 4-byte Reload
	adcs	lr, r0, lr
	ldr	r0, [sp, #12]                   @ 4-byte Reload
	adcs	r1, r4, r12
	ldr	r4, [sp, #28]                   @ 4-byte Reload
	adcs	r3, r8, r3
	ldr	r12, [sp, #72]                  @ 4-byte Reload
	adcs	r7, r10, r0
	ldr	r0, [sp, #16]                   @ 4-byte Reload
	adc	r6, r0, #0
	ldr	r0, [sp, #24]                   @ 4-byte Reload
	adds	r4, r4, r0
	ldr	r4, [sp, #60]                   @ 4-byte Reload
	adcs	r5, r4, r5
	str	r5, [sp, #60]                   @ 4-byte Spill
	ldr	r5, [sp, #56]                   @ 4-byte Reload
	adcs	r2, r5, r2
	str	r2, [sp, #56]                   @ 4-byte Spill
	ldr	r2, [sp, #52]                   @ 4-byte Reload
	adcs	r0, r2, lr
	str	r0, [sp, #52]                   @ 4-byte Spill
	ldr	r0, [sp, #48]                   @ 4-byte Reload
	adcs	r0, r0, r1
	str	r0, [sp, #48]                   @ 4-byte Spill
	ldr	r0, [sp, #44]                   @ 4-byte Reload
	ldr	r1, [sp, #96]                   @ 4-byte Reload
	adcs	r0, r0, r3
	str	r0, [sp, #44]                   @ 4-byte Spill
	ldr	r0, [sp, #40]                   @ 4-byte Reload
	adcs	r0, r0, r7
	str	r0, [sp, #40]                   @ 4-byte Spill
	ldr	r0, [sp, #36]                   @ 4-byte Reload
	adcs	r0, r0, r6
	str	r0, [sp, #36]                   @ 4-byte Spill
	ldr	r0, [sp, #32]                   @ 4-byte Reload
	adc	r0, r0, #0
	str	r0, [sp, #32]                   @ 4-byte Spill
	ldr	r0, [sp, #68]                   @ 4-byte Reload
	ldr	r0, [r0, #20]
	umull	r3, r2, r0, r1
	ldr	r1, [sp, #92]                   @ 4-byte Reload
	str	r2, [sp, #28]                   @ 4-byte Spill
	umull	r9, r2, r0, r1
	ldr	r1, [sp, #84]                   @ 4-byte Reload
	str	r3, [sp, #24]                   @ 4-byte Spill
	umull	r3, lr, r0, r12
	str	r2, [sp, #16]                   @ 4-byte Spill
	umull	r7, r8, r0, r1
	ldr	r1, [sp, #88]                   @ 4-byte Reload
	umull	r5, r6, r0, r1
	ldr	r1, [sp, #80]                   @ 4-byte Reload
	umull	r2, r4, r0, r1
	umull	r10, r1, r0, r11
	str	r10, [sp, #20]                  @ 4-byte Spill
	adds	r3, r1, r3
	adcs	r3, lr, r2
	umlal	r1, r2, r0, r12
	adcs	lr, r4, r5
	adcs	r4, r6, r7
	ldr	r3, [sp, #24]                   @ 4-byte Reload
	adcs	r6, r8, r9
	ldr	r5, [sp, #16]                   @ 4-byte Reload
	ldr	r0, [sp, #60]                   @ 4-byte Reload
	adcs	r5, r5, r3
	ldr	r3, [sp, #28]                   @ 4-byte Reload
	adc	r7, r3, #0
	ldr	r3, [sp, #20]                   @ 4-byte Reload
	adds	r3, r0, r3
	ldr	r0, [sp, #56]                   @ 4-byte Reload
	str	r3, [sp, #28]                   @ 4-byte Spill
	adcs	r0, r0, r1
	str	r0, [sp, #60]                   @ 4-byte Spill
	ldr	r0, [sp, #52]                   @ 4-byte Reload
	adcs	r0, r0, r2
	str	r0, [sp, #56]                   @ 4-byte Spill
	ldr	r0, [sp, #48]                   @ 4-byte Reload
	adcs	r0, r0, lr
	str	r0, [sp, #52]                   @ 4-byte Spill
	ldr	r0, [sp, #44]                   @ 4-byte Reload
	adcs	r0, r0, r4
	str	r0, [sp, #48]                   @ 4-byte Spill
	ldr	r0, [sp, #40]                   @ 4-byte Reload
	adcs	r0, r0, r6
	str	r0, [sp, #44]                   @ 4-byte Spill
	ldr	r0, [sp, #36]                   @ 4-byte Reload
	ldr	r6, [sp, #76]                   @ 4-byte Reload
	adcs	r0, r0, r5
	str	r0, [sp, #40]                   @ 4-byte Spill
	ldr	r0, [sp, #32]                   @ 4-byte Reload
	adcs	r0, r0, r7
	str	r0, [sp, #36]                   @ 4-byte Spill
	mov	r0, #0
	adc	r0, r0, #0
	str	r0, [sp, #32]                   @ 4-byte Spill
	ldr	r0, [sp, #116]                  @ 4-byte Reload
	mul	r1, r0, r3
	ldr	r0, [sp, #128]                  @ 4-byte Reload
	umull	r9, r2, r1, r0
	str	r2, [sp, #20]                   @ 4-byte Spill
	ldr	r2, [sp, #112]                  @ 4-byte Reload
	umull	r7, r0, r1, r2
	mov	r2, r9
	str	r7, [sp, #24]                   @ 4-byte Spill
	ldr	r7, [sp, #100]                  @ 4-byte Reload
	mov	r5, r0
	umlal	r5, r2, r1, r6
	umull	r3, r4, r1, r7
	ldr	r7, [sp, #104]                  @ 4-byte Reload
	str	r3, [sp, #12]                   @ 4-byte Spill
	umull	r3, r10, r1, r7
	ldr	r7, [sp, #120]                  @ 4-byte Reload
	str	r4, [sp, #16]                   @ 4-byte Spill
	umull	r12, r8, r1, r7
	ldr	r7, [sp, #124]                  @ 4-byte Reload
	umull	lr, r4, r1, r7
	umull	r11, r7, r1, r6
	adds	r0, r0, r11
	ldr	r11, [sp, #108]                 @ 4-byte Reload
	adcs	r0, r7, r9
	ldr	r0, [sp, #20]                   @ 4-byte Reload
	adcs	lr, r0, lr
	ldr	r0, [sp, #12]                   @ 4-byte Reload
	adcs	r1, r4, r12
	ldr	r4, [sp, #28]                   @ 4-byte Reload
	adcs	r3, r8, r3
	ldr	r12, [sp, #72]                  @ 4-byte Reload
	adcs	r7, r10, r0
	ldr	r0, [sp, #16]                   @ 4-byte Reload
	adc	r6, r0, #0
	ldr	r0, [sp, #24]                   @ 4-byte Reload
	adds	r4, r4, r0
	ldr	r4, [sp, #60]                   @ 4-byte Reload
	adcs	r5, r4, r5
	str	r5, [sp, #60]                   @ 4-byte Spill
	ldr	r5, [sp, #56]                   @ 4-byte Reload
	adcs	r2, r5, r2
	str	r2, [sp, #56]                   @ 4-byte Spill
	ldr	r2, [sp, #52]                   @ 4-byte Reload
	adcs	r0, r2, lr
	str	r0, [sp, #52]                   @ 4-byte Spill
	ldr	r0, [sp, #48]                   @ 4-byte Reload
	adcs	r0, r0, r1
	str	r0, [sp, #48]                   @ 4-byte Spill
	ldr	r0, [sp, #44]                   @ 4-byte Reload
	ldr	r1, [sp, #96]                   @ 4-byte Reload
	adcs	r0, r0, r3
	str	r0, [sp, #44]                   @ 4-byte Spill
	ldr	r0, [sp, #40]                   @ 4-byte Reload
	adcs	r0, r0, r7
	str	r0, [sp, #40]                   @ 4-byte Spill
	ldr	r0, [sp, #36]                   @ 4-byte Reload
	adcs	r0, r0, r6
	str	r0, [sp, #36]                   @ 4-byte Spill
	ldr	r0, [sp, #32]                   @ 4-byte Reload
	adc	r0, r0, #0
	str	r0, [sp, #32]                   @ 4-byte Spill
	ldr	r0, [sp, #68]                   @ 4-byte Reload
	ldr	r0, [r0, #24]
	umull	r3, r2, r0, r1
	ldr	r1, [sp, #92]                   @ 4-byte Reload
	str	r2, [sp, #68]                   @ 4-byte Spill
	umull	r9, r2, r0, r1
	ldr	r1, [sp, #84]                   @ 4-byte Reload
	str	r3, [sp, #28]                   @ 4-byte Spill
	umull	r3, lr, r0, r12
	str	r2, [sp, #24]                   @ 4-byte Spill
	umull	r7, r8, r0, r1
	ldr	r1, [sp, #88]                   @ 4-byte Reload
	umull	r5, r6, r0, r1
	ldr	r1, [sp, #80]                   @ 4-byte Reload
	umull	r2, r4, r0, r1
	umull	r10, r1, r0, r11
	str	r10, [sp, #96]                  @ 4-byte Spill
	adds	r3, r1, r3
	adcs	r3, lr, r2
	umlal	r1, r2, r0, r12
	adcs	lr, r4, r5
	adcs	r6, r6, r7
	ldr	r5, [sp, #28]                   @ 4-byte Reload
	adcs	r7, r8, r9
	ldr	r3, [sp, #24]                   @ 4-byte Reload
	ldr	r4, [sp, #68]                   @ 4-byte Reload
	adcs	r5, r3, r5
	ldr	r0, [sp, #60]                   @ 4-byte Reload
	ldr	r3, [sp, #96]                   @ 4-byte Reload
	adc	r4, r4, #0
	ldr	r9, [sp, #76]                   @ 4-byte Reload
	adds	r10, r0, r3
	ldr	r0, [sp, #56]                   @ 4-byte Reload
	ldr	r8, [sp, #104]                  @ 4-byte Reload
	adcs	r0, r0, r1
	str	r0, [sp, #108]                  @ 4-byte Spill
	ldr	r0, [sp, #52]                   @ 4-byte Reload
	adcs	r0, r0, r2
	str	r0, [sp, #96]                   @ 4-byte Spill
	ldr	r0, [sp, #48]                   @ 4-byte Reload
	adcs	r0, r0, lr
	str	r0, [sp, #92]                   @ 4-byte Spill
	ldr	r0, [sp, #44]                   @ 4-byte Reload
	adcs	r0, r0, r6
	str	r0, [sp, #88]                   @ 4-byte Spill
	ldr	r0, [sp, #40]                   @ 4-byte Reload
	ldr	r6, [sp, #100]                  @ 4-byte Reload
	adcs	r0, r0, r7
	str	r0, [sp, #84]                   @ 4-byte Spill
	ldr	r0, [sp, #36]                   @ 4-byte Reload
	adcs	r0, r0, r5
	str	r0, [sp, #80]                   @ 4-byte Spill
	ldr	r0, [sp, #32]                   @ 4-byte Reload
	adcs	r0, r0, r4
	str	r0, [sp, #72]                   @ 4-byte Spill
	mov	r0, #0
	ldr	r4, [sp, #120]                  @ 4-byte Reload
	adc	r0, r0, #0
	str	r0, [sp, #68]                   @ 4-byte Spill
	ldr	r0, [sp, #116]                  @ 4-byte Reload
	mul	r1, r0, r10
	ldr	r0, [sp, #112]                  @ 4-byte Reload
	mov	lr, r0
	umull	r7, r5, r1, r0
	umull	r2, r3, r1, r9
	str	r7, [sp, #116]                  @ 4-byte Spill
	ldr	r7, [sp, #128]                  @ 4-byte Reload
	adds	r2, r5, r2
	umull	r0, r2, r1, r7
	ldr	r7, [sp, #124]                  @ 4-byte Reload
	adcs	r3, r3, r0
	umlal	r5, r0, r1, r9
	umull	r3, r12, r1, r7
	adcs	r2, r2, r3
	str	r2, [sp, #60]                   @ 4-byte Spill
	umull	r2, r3, r1, r4
	adcs	r4, r12, r2
	umull	r7, r2, r1, r8
	adcs	r11, r3, r7
	umull	r7, r3, r1, r6
	ldr	r1, [sp, #116]                  @ 4-byte Reload
	adcs	r12, r2, r7
	mov	r7, r9
	adc	r9, r3, #0
	adds	r1, r10, r1
	ldr	r1, [sp, #108]                  @ 4-byte Reload
	ldr	r2, [sp, #96]                   @ 4-byte Reload
	adcs	r1, r1, r5
	ldr	r3, [sp, #60]                   @ 4-byte Reload
	adcs	r2, r2, r0
	ldr	r0, [sp, #92]                   @ 4-byte Reload
	ldr	r5, [sp, #88]                   @ 4-byte Reload
	adcs	r0, r0, r3
	str	r1, [sp, #116]                  @ 4-byte Spill
	adcs	r3, r5, r4
	ldr	r5, [sp, #84]                   @ 4-byte Reload
	ldr	r4, [sp, #80]                   @ 4-byte Reload
	adcs	r5, r5, r11
	str	r0, [sp, #96]                   @ 4-byte Spill
	adcs	r11, r4, r12
	ldr	r4, [sp, #72]                   @ 4-byte Reload
	str	r2, [sp, #108]                  @ 4-byte Spill
	adcs	r12, r4, r9
	ldr	r4, [sp, #68]                   @ 4-byte Reload
	str	r3, [sp, #92]                   @ 4-byte Spill
	adc	r9, r4, #0
	subs	r10, r1, lr
	ldr	r1, [sp, #128]                  @ 4-byte Reload
	sbcs	lr, r2, r7
	sbcs	r7, r0, r1
	ldr	r0, [sp, #124]                  @ 4-byte Reload
	sbcs	r4, r3, r0
	ldr	r0, [sp, #120]                  @ 4-byte Reload
	ldr	r3, [sp, #64]                   @ 4-byte Reload
	sbcs	r1, r5, r0
	sbcs	r2, r11, r8
	sbcs	r0, r12, r6
	sbc	r6, r9, #0
	ands	r6, r6, #1
	movne	r0, r12
	movne	r2, r11
	str	r0, [r3, #24]
	movne	r1, r5
	ldr	r0, [sp, #92]                   @ 4-byte Reload
	cmp	r6, #0
	str	r2, [r3, #20]
	str	r1, [r3, #16]
	movne	r4, r0
	ldr	r0, [sp, #96]                   @ 4-byte Reload
	str	r4, [r3, #12]
	movne	r7, r0
	ldr	r0, [sp, #108]                  @ 4-byte Reload
	str	r7, [r3, #8]
	movne	lr, r0
	ldr	r0, [sp, #116]                  @ 4-byte Reload
	cmp	r6, #0
	str	lr, [r3, #4]
	movne	r10, r0
	str	r10, [r3]
	add	sp, sp, #132
	pop	{r4, r5, r6, r7, r8, r9, r10, r11, lr}
	mov	pc, lr
.Lfunc_end26:
	.size	mcl_fp_mont7L, .Lfunc_end26-mcl_fp_mont7L
	.cantunwind
	.fnend
                                        @ -- End function
	.globl	mcl_fp_montNF7L                 @ -- Begin function mcl_fp_montNF7L
	.p2align	2
	.type	mcl_fp_montNF7L,%function
	.code	32                              @ @mcl_fp_montNF7L
mcl_fp_montNF7L:
	.fnstart
@ %bb.0:
	.save	{r4, r5, r6, r7, r8, r9, r10, r11, lr}
	push	{r4, r5, r6, r7, r8, r9, r10, r11, lr}
	.pad	#104
	sub	sp, sp, #104
	str	r0, [sp, #36]                   @ 4-byte Spill
	mov	r0, r2
	str	r2, [sp, #40]                   @ 4-byte Spill
	ldm	r2, {r4, r12}
	ldr	r6, [r1, #4]
	ldr	r7, [r1]
	ldr	r5, [r1, #8]
	umull	r9, r8, r6, r4
	mov	r11, r6
	str	r6, [sp, #60]                   @ 4-byte Spill
	ldr	r0, [r0, #12]
	umull	lr, r10, r7, r4
	str	r0, [sp, #32]                   @ 4-byte Spill
	ldr	r0, [r1, #12]
	str	r7, [sp, #96]                   @ 4-byte Spill
	str	r0, [sp, #52]                   @ 4-byte Spill
	str	r5, [sp, #80]                   @ 4-byte Spill
	adds	r6, r10, r9
	ldr	r2, [r2, #8]
	umull	r6, r9, r5, r4
	ldr	r5, [r1, #20]
	str	r5, [sp, #48]                   @ 4-byte Spill
	str	r2, [sp]                        @ 4-byte Spill
	adcs	r7, r8, r6
	umlal	r10, r6, r11, r4
	umull	r7, r8, r0, r4
	adcs	r0, r9, r7
	str	r0, [sp, #88]                   @ 4-byte Spill
	ldr	r0, [r1, #16]
	str	r0, [sp, #68]                   @ 4-byte Spill
	umull	r7, r9, r0, r4
	adcs	r0, r8, r7
	str	r0, [sp, #84]                   @ 4-byte Spill
	umull	r7, r0, r5, r4
	adcs	r5, r9, r7
	str	r5, [sp, #76]                   @ 4-byte Spill
	ldr	r5, [r1, #24]
	str	r5, [sp, #72]                   @ 4-byte Spill
	ldr	r7, [r3, #4]
	umull	r1, r9, r5, r4
	ldr	r5, [r3]
	str	r5, [sp, #44]                   @ 4-byte Spill
	str	r7, [sp, #56]                   @ 4-byte Spill
	adcs	r0, r0, r1
	ldr	r1, [r3, #-4]
	str	r0, [sp, #28]                   @ 4-byte Spill
	adc	r0, r9, #0
	str	r0, [sp, #24]                   @ 4-byte Spill
	mul	r0, r1, lr
	str	r1, [sp, #64]                   @ 4-byte Spill
	ldr	r9, [r3, #8]
	str	r9, [sp, #100]                  @ 4-byte Spill
	umull	r1, r2, r0, r5
	str	r2, [sp, #20]                   @ 4-byte Spill
	adds	r1, lr, r1
	umull	r1, lr, r0, r7
	adcs	r11, r10, r1
	umull	r5, r1, r0, r9
	str	r1, [sp, #16]                   @ 4-byte Spill
	ldr	r1, [r3, #12]
	adcs	r9, r6, r5
	str	r1, [sp, #92]                   @ 4-byte Spill
	umull	r5, r10, r0, r1
	ldr	r1, [sp, #88]                   @ 4-byte Reload
	adcs	r7, r1, r5
	ldr	r1, [r3, #16]
	str	r1, [sp, #88]                   @ 4-byte Spill
	umull	r5, r8, r0, r1
	ldr	r1, [sp, #84]                   @ 4-byte Reload
	adcs	r4, r1, r5
	ldr	r1, [r3, #20]
	str	r1, [sp, #84]                   @ 4-byte Spill
	umull	r5, r6, r0, r1
	ldr	r1, [sp, #76]                   @ 4-byte Reload
	adcs	r5, r1, r5
	ldr	r1, [r3, #24]
	str	r1, [sp, #76]                   @ 4-byte Spill
	umull	r3, r2, r0, r1
	ldr	r0, [sp, #28]                   @ 4-byte Reload
	ldr	r1, [sp, #24]                   @ 4-byte Reload
	adcs	r0, r0, r3
	adc	r3, r1, #0
	ldr	r1, [sp, #20]                   @ 4-byte Reload
	adds	r11, r11, r1
	adcs	r1, r9, lr
	str	r1, [sp, #28]                   @ 4-byte Spill
	ldr	r1, [sp, #16]                   @ 4-byte Reload
	adcs	r1, r7, r1
	str	r1, [sp, #24]                   @ 4-byte Spill
	adcs	r1, r4, r10
	str	r1, [sp, #20]                   @ 4-byte Spill
	adcs	r1, r5, r8
	str	r1, [sp, #16]                   @ 4-byte Spill
	adcs	r0, r0, r6
	str	r0, [sp, #12]                   @ 4-byte Spill
	adc	r0, r3, r2
	ldr	r2, [sp, #60]                   @ 4-byte Reload
	ldr	r1, [sp, #96]                   @ 4-byte Reload
	str	r0, [sp, #8]                    @ 4-byte Spill
	umull	r3, r4, r12, r2
	ldr	r7, [sp, #80]                   @ 4-byte Reload
	ldr	r5, [sp, #52]                   @ 4-byte Reload
	umull	r9, r0, r12, r1
	adds	r3, r0, r3
	umull	r1, r3, r12, r7
	ldr	r7, [sp, #48]                   @ 4-byte Reload
	adcs	r4, r4, r1
	umlal	r0, r1, r12, r2
	umull	r4, r6, r12, r5
	ldr	r5, [sp, #68]                   @ 4-byte Reload
	adcs	r10, r3, r4
	umull	r4, r3, r12, r5
	adcs	r8, r6, r4
	umull	r6, r4, r12, r7
	ldr	r7, [sp, #72]                   @ 4-byte Reload
	adcs	r5, r3, r6
	umull	r6, r3, r12, r7
	ldr	r7, [sp, #28]                   @ 4-byte Reload
	adcs	r4, r4, r6
	adc	r2, r3, #0
	adds	r3, r9, r11
	adcs	r0, r0, r7
	ldr	r7, [sp, #24]                   @ 4-byte Reload
	adcs	r1, r1, r7
	ldr	r7, [sp, #20]                   @ 4-byte Reload
	adcs	r6, r10, r7
	ldr	r7, [sp, #16]                   @ 4-byte Reload
	adcs	r11, r8, r7
	ldr	r7, [sp, #12]                   @ 4-byte Reload
	ldr	r8, [sp, #56]                   @ 4-byte Reload
	adcs	r7, r5, r7
	ldr	r5, [sp, #8]                    @ 4-byte Reload
	str	r7, [sp, #16]                   @ 4-byte Spill
	adcs	r7, r4, r5
	ldr	r5, [sp, #64]                   @ 4-byte Reload
	adc	r2, r2, #0
	str	r2, [sp, #28]                   @ 4-byte Spill
	str	r7, [sp, #20]                   @ 4-byte Spill
	mul	r2, r5, r3
	ldr	r5, [sp, #44]                   @ 4-byte Reload
	umull	r4, r7, r2, r5
	str	r7, [sp, #24]                   @ 4-byte Spill
	adds	r3, r3, r4
	ldr	r4, [sp, #24]                   @ 4-byte Reload
	umull	r3, r7, r2, r8
	str	r7, [sp, #12]                   @ 4-byte Spill
	adcs	lr, r0, r3
	ldr	r0, [sp, #100]                  @ 4-byte Reload
	umull	r3, r7, r2, r0
	ldr	r0, [sp, #92]                   @ 4-byte Reload
	str	r7, [sp, #8]                    @ 4-byte Spill
	adcs	r12, r1, r3
	umull	r3, r10, r2, r0
	ldr	r0, [sp, #88]                   @ 4-byte Reload
	adcs	r3, r6, r3
	umull	r6, r9, r2, r0
	ldr	r0, [sp, #84]                   @ 4-byte Reload
	adcs	r5, r11, r6
	umull	r6, r1, r2, r0
	ldr	r11, [sp, #76]                  @ 4-byte Reload
	ldr	r0, [sp, #16]                   @ 4-byte Reload
	adcs	r6, r0, r6
	umull	r7, r0, r2, r11
	ldr	r2, [sp, #20]                   @ 4-byte Reload
	adcs	r2, r2, r7
	ldr	r7, [sp, #28]                   @ 4-byte Reload
	adc	r7, r7, #0
	adds	r4, lr, r4
	str	r4, [sp, #28]                   @ 4-byte Spill
	ldr	r4, [sp, #12]                   @ 4-byte Reload
	adcs	r4, r12, r4
	str	r4, [sp, #24]                   @ 4-byte Spill
	ldr	r4, [sp, #8]                    @ 4-byte Reload
	ldr	r12, [sp, #60]                  @ 4-byte Reload
	adcs	r3, r3, r4
	str	r3, [sp, #20]                   @ 4-byte Spill
	adcs	r3, r5, r10
	str	r3, [sp, #16]                   @ 4-byte Spill
	adcs	r3, r6, r9
	str	r3, [sp, #12]                   @ 4-byte Spill
	adcs	r1, r2, r1
	str	r1, [sp, #8]                    @ 4-byte Spill
	adc	r0, r7, r0
	str	r0, [sp, #4]                    @ 4-byte Spill
	ldr	r0, [sp]                        @ 4-byte Reload
	ldr	r1, [sp, #96]                   @ 4-byte Reload
	ldr	r3, [sp, #80]                   @ 4-byte Reload
	umull	r2, r6, r0, r12
	ldr	r5, [sp, #52]                   @ 4-byte Reload
	ldr	r4, [sp, #68]                   @ 4-byte Reload
	ldr	r7, [sp, #48]                   @ 4-byte Reload
	umull	r11, lr, r0, r1
	ldr	r9, [sp, #72]                   @ 4-byte Reload
	adds	r2, lr, r2
	umull	r1, r2, r0, r3
	adcs	r6, r6, r1
	umlal	lr, r1, r0, r12
	umull	r6, r3, r0, r5
	adcs	r5, r2, r6
	umull	r6, r2, r0, r4
	adcs	r10, r3, r6
	umull	r6, r3, r0, r7
	ldr	r7, [sp, #28]                   @ 4-byte Reload
	adcs	r4, r2, r6
	umull	r6, r2, r0, r9
	ldr	r9, [sp, #44]                   @ 4-byte Reload
	adcs	r3, r3, r6
	ldr	r6, [sp, #24]                   @ 4-byte Reload
	adc	r2, r2, #0
	adds	r7, r11, r7
	adcs	r0, lr, r6
	ldr	r6, [sp, #20]                   @ 4-byte Reload
	adcs	r1, r1, r6
	ldr	r6, [sp, #16]                   @ 4-byte Reload
	adcs	r6, r5, r6
	ldr	r5, [sp, #12]                   @ 4-byte Reload
	adcs	r11, r10, r5
	ldr	r5, [sp, #8]                    @ 4-byte Reload
	adcs	r10, r4, r5
	ldr	r5, [sp, #4]                    @ 4-byte Reload
	ldr	r4, [sp, #92]                   @ 4-byte Reload
	adcs	r3, r3, r5
	str	r3, [sp, #28]                   @ 4-byte Spill
	ldr	r3, [sp, #64]                   @ 4-byte Reload
	adc	r2, r2, #0
	str	r2, [sp, #24]                   @ 4-byte Spill
	mul	r2, r3, r7
	umull	r3, r5, r2, r9
	str	r5, [sp, #20]                   @ 4-byte Spill
	adds	r3, r7, r3
	umull	r3, r7, r2, r8
	str	r7, [sp, #16]                   @ 4-byte Spill
	ldr	r7, [sp, #100]                  @ 4-byte Reload
	adcs	r8, r0, r3
	ldr	r0, [sp, #76]                   @ 4-byte Reload
	umull	r3, lr, r2, r7
	ldr	r7, [sp, #84]                   @ 4-byte Reload
	adcs	r1, r1, r3
	umull	r3, r12, r2, r4
	ldr	r4, [sp, #88]                   @ 4-byte Reload
	adcs	r3, r6, r3
	umull	r6, r5, r2, r4
	adcs	r6, r11, r6
	umull	r4, r11, r2, r7
	adcs	r4, r10, r4
	umull	r7, r10, r2, r0
	ldr	r0, [sp, #28]                   @ 4-byte Reload
	adcs	r2, r0, r7
	ldr	r0, [sp, #24]                   @ 4-byte Reload
	adc	r7, r0, #0
	ldr	r0, [sp, #20]                   @ 4-byte Reload
	adds	r0, r8, r0
	str	r0, [sp, #28]                   @ 4-byte Spill
	ldr	r0, [sp, #16]                   @ 4-byte Reload
	ldr	r8, [sp, #52]                   @ 4-byte Reload
	adcs	r0, r1, r0
	str	r0, [sp, #24]                   @ 4-byte Spill
	adcs	r0, r3, lr
	str	r0, [sp, #20]                   @ 4-byte Spill
	adcs	r0, r6, r12
	str	r0, [sp, #16]                   @ 4-byte Spill
	adcs	r0, r4, r5
	ldr	r1, [sp, #60]                   @ 4-byte Reload
	ldr	r6, [sp, #32]                   @ 4-byte Reload
	ldr	r3, [sp, #96]                   @ 4-byte Reload
	str	r0, [sp, #12]                   @ 4-byte Spill
	adcs	r0, r2, r11
	str	r0, [sp, #8]                    @ 4-byte Spill
	adc	r0, r7, r10
	str	r0, [sp, #4]                    @ 4-byte Spill
	umull	r4, r0, r6, r1
	ldr	r7, [sp, #80]                   @ 4-byte Reload
	ldr	r10, [sp, #48]                  @ 4-byte Reload
	umull	r11, r2, r6, r3
	adds	r4, r2, r4
	umull	r3, r4, r6, r7
	adcs	r0, r0, r3
	umlal	r2, r3, r6, r1
	umull	r0, r7, r6, r8
	adcs	r5, r4, r0
	ldr	r0, [sp, #68]                   @ 4-byte Reload
	umull	r4, r1, r6, r0
	mov	r0, r6
	adcs	r4, r7, r4
	umull	r7, r12, r6, r10
	ldr	r6, [sp, #72]                   @ 4-byte Reload
	adcs	lr, r1, r7
	umull	r7, r1, r0, r6
	ldr	r0, [sp, #28]                   @ 4-byte Reload
	adcs	r7, r12, r7
	adc	r12, r1, #0
	ldr	r1, [sp, #24]                   @ 4-byte Reload
	adds	r0, r11, r0
	adcs	r2, r2, r1
	ldr	r1, [sp, #20]                   @ 4-byte Reload
	adcs	r3, r3, r1
	ldr	r1, [sp, #16]                   @ 4-byte Reload
	adcs	r6, r5, r1
	ldr	r1, [sp, #12]                   @ 4-byte Reload
	adcs	r11, r4, r1
	ldr	r1, [sp, #8]                    @ 4-byte Reload
	adcs	r1, lr, r1
	str	r1, [sp, #20]                   @ 4-byte Spill
	ldr	r1, [sp, #4]                    @ 4-byte Reload
	adcs	r1, r7, r1
	str	r1, [sp, #24]                   @ 4-byte Spill
	adc	r1, r12, #0
	str	r1, [sp, #32]                   @ 4-byte Spill
	ldr	r1, [sp, #64]                   @ 4-byte Reload
	ldr	r12, [sp, #76]                  @ 4-byte Reload
	mul	r4, r1, r0
	umull	r7, r1, r4, r9
	str	r1, [sp, #28]                   @ 4-byte Spill
	ldr	r1, [sp, #56]                   @ 4-byte Reload
	adds	r0, r0, r7
	umull	r0, r7, r4, r1
	ldr	r1, [sp, #100]                  @ 4-byte Reload
	str	r7, [sp, #16]                   @ 4-byte Spill
	adcs	lr, r2, r0
	umull	r2, r0, r4, r1
	ldr	r1, [sp, #92]                   @ 4-byte Reload
	ldr	r7, [sp, #84]                   @ 4-byte Reload
	str	r0, [sp, #12]                   @ 4-byte Spill
	adcs	r2, r3, r2
	umull	r3, r0, r4, r1
	ldr	r1, [sp, #88]                   @ 4-byte Reload
	str	r0, [sp, #8]                    @ 4-byte Spill
	adcs	r3, r6, r3
	umull	r6, r5, r4, r1
	ldr	r0, [sp, #20]                   @ 4-byte Reload
	adcs	r6, r11, r6
	umull	r1, r11, r4, r7
	umull	r7, r9, r4, r12
	ldr	r12, [sp, #60]                  @ 4-byte Reload
	adcs	r1, r0, r1
	ldr	r0, [sp, #24]                   @ 4-byte Reload
	adcs	r4, r0, r7
	ldr	r7, [sp, #32]                   @ 4-byte Reload
	ldr	r0, [sp, #28]                   @ 4-byte Reload
	adc	r7, r7, #0
	adds	r0, lr, r0
	str	r0, [sp, #32]                   @ 4-byte Spill
	ldr	r0, [sp, #16]                   @ 4-byte Reload
	adcs	r0, r2, r0
	str	r0, [sp, #28]                   @ 4-byte Spill
	ldr	r0, [sp, #12]                   @ 4-byte Reload
	ldr	r2, [sp, #96]                   @ 4-byte Reload
	adcs	r0, r3, r0
	str	r0, [sp, #24]                   @ 4-byte Spill
	ldr	r0, [sp, #8]                    @ 4-byte Reload
	adcs	r0, r6, r0
	str	r0, [sp, #20]                   @ 4-byte Spill
	adcs	r0, r1, r5
	str	r0, [sp, #16]                   @ 4-byte Spill
	adcs	r0, r4, r11
	str	r0, [sp, #12]                   @ 4-byte Spill
	adc	r0, r7, r9
	ldr	r9, [sp, #40]                   @ 4-byte Reload
	str	r0, [sp, #8]                    @ 4-byte Spill
	ldr	r6, [sp, #72]                   @ 4-byte Reload
	ldr	r4, [r9, #16]
	umull	r11, r3, r4, r2
	ldr	r2, [sp, #80]                   @ 4-byte Reload
	umull	r0, r1, r4, r12
	adds	r0, r3, r0
	umull	r5, r0, r4, r2
	ldr	r2, [sp, #68]                   @ 4-byte Reload
	adcs	r1, r1, r5
	umlal	r3, r5, r4, r12
	umull	r1, r7, r4, r8
	adcs	r8, r0, r1
	umull	r1, r0, r4, r2
	adcs	lr, r7, r1
	umull	r7, r1, r4, r10
	adcs	r2, r0, r7
	umull	r7, r0, r4, r6
	ldr	r6, [sp, #16]                   @ 4-byte Reload
	adcs	r1, r1, r7
	ldr	r7, [sp, #32]                   @ 4-byte Reload
	adc	r0, r0, #0
	adds	r4, r11, r7
	ldr	r7, [sp, #28]                   @ 4-byte Reload
	adcs	r3, r3, r7
	ldr	r7, [sp, #24]                   @ 4-byte Reload
	adcs	r5, r5, r7
	ldr	r7, [sp, #20]                   @ 4-byte Reload
	adcs	r7, r8, r7
	adcs	r11, lr, r6
	ldr	r6, [sp, #12]                   @ 4-byte Reload
	adcs	r10, r2, r6
	ldr	r2, [sp, #8]                    @ 4-byte Reload
	adcs	r1, r1, r2
	str	r1, [sp, #32]                   @ 4-byte Spill
	ldr	r1, [sp, #64]                   @ 4-byte Reload
	adc	r0, r0, #0
	str	r0, [sp, #28]                   @ 4-byte Spill
	ldr	r2, [sp, #44]                   @ 4-byte Reload
	mul	r0, r1, r4
	umull	r1, r6, r0, r2
	ldr	r2, [sp, #56]                   @ 4-byte Reload
	str	r6, [sp, #24]                   @ 4-byte Spill
	adds	r1, r4, r1
	ldr	r4, [sp, #84]                   @ 4-byte Reload
	umull	r1, r6, r0, r2
	str	r6, [sp, #20]                   @ 4-byte Spill
	adcs	lr, r3, r1
	ldr	r1, [sp, #100]                  @ 4-byte Reload
	umull	r3, r2, r0, r1
	ldr	r1, [sp, #92]                   @ 4-byte Reload
	str	r2, [sp, #16]                   @ 4-byte Spill
	adcs	r3, r5, r3
	umull	r5, r8, r0, r1
	ldr	r1, [sp, #88]                   @ 4-byte Reload
	ldr	r2, [sp, #24]                   @ 4-byte Reload
	adcs	r5, r7, r5
	umull	r7, r12, r0, r1
	adcs	r6, r11, r7
	umull	r7, r1, r0, r4
	ldr	r11, [sp, #76]                  @ 4-byte Reload
	adcs	r7, r10, r7
	umull	r4, r10, r0, r11
	ldr	r0, [sp, #32]                   @ 4-byte Reload
	adcs	r0, r0, r4
	ldr	r4, [sp, #28]                   @ 4-byte Reload
	adc	r4, r4, #0
	adds	r2, lr, r2
	str	r2, [sp, #32]                   @ 4-byte Spill
	ldr	r2, [sp, #20]                   @ 4-byte Reload
	adcs	r2, r3, r2
	str	r2, [sp, #28]                   @ 4-byte Spill
	ldr	r2, [sp, #16]                   @ 4-byte Reload
	ldr	r3, [sp, #60]                   @ 4-byte Reload
	adcs	r11, r5, r2
	adcs	r2, r6, r8
	str	r2, [sp, #24]                   @ 4-byte Spill
	adcs	r2, r7, r12
	ldr	r7, [r9, #20]
	adcs	r0, r0, r1
	ldr	r1, [sp, #96]                   @ 4-byte Reload
	str	r0, [sp, #16]                   @ 4-byte Spill
	adc	r0, r4, r10
	str	r2, [sp, #20]                   @ 4-byte Spill
	str	r0, [sp, #12]                   @ 4-byte Spill
	umull	r10, r2, r7, r1
	ldr	r1, [sp, #80]                   @ 4-byte Reload
	ldr	r6, [sp, #52]                   @ 4-byte Reload
	umull	r4, r0, r7, r3
	ldr	r8, [sp, #76]                   @ 4-byte Reload
	adds	r4, r2, r4
	umull	r5, r4, r7, r1
	adcs	r0, r0, r5
	umlal	r2, r5, r7, r3
	ldr	r3, [sp, #72]                   @ 4-byte Reload
	umull	r0, r1, r7, r6
	ldr	r6, [sp, #68]                   @ 4-byte Reload
	adcs	lr, r4, r0
	umull	r4, r0, r7, r6
	ldr	r6, [sp, #48]                   @ 4-byte Reload
	adcs	r12, r1, r4
	umull	r4, r1, r7, r6
	adcs	r9, r0, r4
	umull	r4, r0, r7, r3
	ldr	r3, [sp, #32]                   @ 4-byte Reload
	adcs	r1, r1, r4
	adc	r0, r0, #0
	adds	r4, r10, r3
	ldr	r3, [sp, #28]                   @ 4-byte Reload
	adcs	r2, r2, r3
	ldr	r3, [sp, #24]                   @ 4-byte Reload
	adcs	r5, r5, r11
	adcs	r7, lr, r3
	ldr	r3, [sp, #20]                   @ 4-byte Reload
	adcs	r11, r12, r3
	ldr	r3, [sp, #16]                   @ 4-byte Reload
	adcs	r9, r9, r3
	ldr	r3, [sp, #12]                   @ 4-byte Reload
	adcs	r1, r1, r3
	str	r1, [sp, #32]                   @ 4-byte Spill
	ldr	r1, [sp, #64]                   @ 4-byte Reload
	adc	r0, r0, #0
	str	r0, [sp, #28]                   @ 4-byte Spill
	ldr	r3, [sp, #44]                   @ 4-byte Reload
	mul	r0, r1, r4
	umull	r1, r6, r0, r3
	ldr	r3, [sp, #56]                   @ 4-byte Reload
	str	r6, [sp, #24]                   @ 4-byte Spill
	adds	r1, r4, r1
	ldr	r4, [sp, #84]                   @ 4-byte Reload
	umull	r1, r6, r0, r3
	ldr	r3, [sp, #100]                  @ 4-byte Reload
	str	r6, [sp, #20]                   @ 4-byte Spill
	adcs	r12, r2, r1
	umull	r2, r10, r0, r3
	ldr	r3, [sp, #92]                   @ 4-byte Reload
	ldr	r1, [sp, #24]                   @ 4-byte Reload
	adcs	r2, r5, r2
	umull	r5, lr, r0, r3
	ldr	r3, [sp, #88]                   @ 4-byte Reload
	adcs	r5, r7, r5
	umull	r7, r6, r0, r3
	adcs	r7, r11, r7
	umull	r3, r11, r0, r4
	adcs	r3, r9, r3
	umull	r4, r9, r0, r8
	ldr	r0, [sp, #32]                   @ 4-byte Reload
	adcs	r0, r0, r4
	ldr	r4, [sp, #28]                   @ 4-byte Reload
	adc	r4, r4, #0
	adds	r8, r12, r1
	ldr	r1, [sp, #20]                   @ 4-byte Reload
	adcs	r1, r2, r1
	str	r1, [sp, #16]                   @ 4-byte Spill
	adcs	r1, r5, r10
	str	r1, [sp, #32]                   @ 4-byte Spill
	adcs	r1, r7, lr
	str	r1, [sp, #28]                   @ 4-byte Spill
	adcs	r1, r3, r6
	ldr	r5, [sp, #60]                   @ 4-byte Reload
	adcs	r0, r0, r11
	str	r0, [sp, #20]                   @ 4-byte Spill
	ldr	r0, [sp, #40]                   @ 4-byte Reload
	adc	r9, r4, r9
	str	r1, [sp, #24]                   @ 4-byte Spill
	ldr	r7, [sp, #68]                   @ 4-byte Reload
	ldr	r4, [r0, #24]
	ldr	r0, [sp, #80]                   @ 4-byte Reload
	ldr	r10, [sp, #44]                  @ 4-byte Reload
	umull	r12, r1, r4, r5
	umull	r6, lr, r4, r0
	ldr	r0, [sp, #96]                   @ 4-byte Reload
	umull	r11, r2, r4, r0
	mov	r0, r6
	mov	r3, r2
	adds	r2, r2, r12
	adcs	r1, r1, r6
	ldr	r6, [sp, #52]                   @ 4-byte Reload
	umlal	r3, r0, r4, r5
	umull	r1, r2, r4, r6
	adcs	r5, lr, r1
	umull	r6, r1, r4, r7
	ldr	r7, [sp, #48]                   @ 4-byte Reload
	adcs	lr, r2, r6
	umull	r6, r2, r4, r7
	ldr	r7, [sp, #72]                   @ 4-byte Reload
	adcs	r12, r1, r6
	umull	r6, r1, r4, r7
	adcs	r2, r2, r6
	ldr	r6, [sp, #16]                   @ 4-byte Reload
	adc	r1, r1, #0
	adds	r4, r11, r8
	adcs	r6, r3, r6
	ldr	r3, [sp, #32]                   @ 4-byte Reload
	ldr	r8, [sp, #84]                   @ 4-byte Reload
	adcs	r0, r0, r3
	ldr	r3, [sp, #28]                   @ 4-byte Reload
	adcs	r7, r5, r3
	ldr	r3, [sp, #24]                   @ 4-byte Reload
	adcs	lr, lr, r3
	ldr	r3, [sp, #20]                   @ 4-byte Reload
	adcs	r11, r12, r3
	ldr	r12, [sp, #56]                  @ 4-byte Reload
	adcs	r2, r2, r9
	str	r2, [sp, #96]                   @ 4-byte Spill
	ldr	r2, [sp, #64]                   @ 4-byte Reload
	adc	r1, r1, #0
	str	r1, [sp, #80]                   @ 4-byte Spill
	ldr	r9, [sp, #88]                   @ 4-byte Reload
	mul	r1, r2, r4
	umull	r2, r3, r1, r10
	str	r3, [sp, #72]                   @ 4-byte Spill
	ldr	r3, [sp, #100]                  @ 4-byte Reload
	adds	r2, r4, r2
	umull	r2, r5, r1, r3
	umull	r4, r3, r1, r12
	str	r5, [sp, #68]                   @ 4-byte Spill
	ldr	r5, [sp, #92]                   @ 4-byte Reload
	str	r3, [sp, #64]                   @ 4-byte Spill
	adcs	r3, r6, r4
	str	r3, [sp, #48]                   @ 4-byte Spill
	adcs	r0, r0, r2
	str	r0, [sp, #40]                   @ 4-byte Spill
	umull	r0, r2, r1, r5
	str	r2, [sp, #60]                   @ 4-byte Spill
	adcs	r0, r7, r0
	str	r0, [sp, #28]                   @ 4-byte Spill
	umull	r0, r2, r1, r9
	ldr	r7, [sp, #76]                   @ 4-byte Reload
	str	r2, [sp, #52]                   @ 4-byte Spill
	adcs	r3, lr, r0
	umull	r6, r0, r1, r8
	ldr	r2, [sp, #48]                   @ 4-byte Reload
	str	r0, [sp, #32]                   @ 4-byte Spill
	umull	r4, r0, r1, r7
	adcs	r11, r11, r6
	ldr	r1, [sp, #28]                   @ 4-byte Reload
	str	r0, [sp, #24]                   @ 4-byte Spill
	ldr	r0, [sp, #96]                   @ 4-byte Reload
	adcs	lr, r0, r4
	ldr	r0, [sp, #80]                   @ 4-byte Reload
	ldr	r4, [sp, #40]                   @ 4-byte Reload
	adc	r0, r0, #0
	str	r0, [sp, #20]                   @ 4-byte Spill
	ldr	r0, [sp, #72]                   @ 4-byte Reload
	adds	r0, r2, r0
	ldr	r2, [sp, #64]                   @ 4-byte Reload
	str	r0, [sp, #96]                   @ 4-byte Spill
	adcs	r2, r4, r2
	ldr	r4, [sp, #68]                   @ 4-byte Reload
	str	r2, [sp, #80]                   @ 4-byte Spill
	adcs	r6, r1, r4
	ldr	r4, [sp, #60]                   @ 4-byte Reload
	str	r6, [sp, #72]                   @ 4-byte Spill
	adcs	r3, r3, r4
	ldr	r4, [sp, #52]                   @ 4-byte Reload
	str	r3, [sp, #68]                   @ 4-byte Spill
	adcs	r1, r11, r4
	str	r1, [sp, #64]                   @ 4-byte Spill
	ldr	r1, [sp, #32]                   @ 4-byte Reload
	ldr	r4, [sp, #20]                   @ 4-byte Reload
	adcs	r11, lr, r1
	ldr	r1, [sp, #24]                   @ 4-byte Reload
	adc	r1, r4, r1
	subs	r10, r0, r10
	ldr	r0, [sp, #100]                  @ 4-byte Reload
	sbcs	lr, r2, r12
	sbcs	r12, r6, r0
	sbcs	r5, r3, r5
	ldr	r3, [sp, #64]                   @ 4-byte Reload
	sbcs	r0, r3, r9
	sbcs	r4, r11, r8
	sbc	r6, r1, r7
	asr	r2, r6, #31
	cmn	r2, #1
	movgt	r1, r6
	ldr	r6, [sp, #36]                   @ 4-byte Reload
	movle	r0, r3
	movle	r4, r11
	cmn	r2, #1
	str	r0, [r6, #16]
	ldr	r0, [sp, #68]                   @ 4-byte Reload
	str	r1, [r6, #24]
	str	r4, [r6, #20]
	movle	r5, r0
	ldr	r0, [sp, #72]                   @ 4-byte Reload
	str	r5, [r6, #12]
	movle	r12, r0
	ldr	r0, [sp, #80]                   @ 4-byte Reload
	str	r12, [r6, #8]
	movle	lr, r0
	ldr	r0, [sp, #96]                   @ 4-byte Reload
	cmn	r2, #1
	str	lr, [r6, #4]
	movle	r10, r0
	str	r10, [r6]
	add	sp, sp, #104
	pop	{r4, r5, r6, r7, r8, r9, r10, r11, lr}
	mov	pc, lr
.Lfunc_end27:
	.size	mcl_fp_montNF7L, .Lfunc_end27-mcl_fp_montNF7L
	.cantunwind
	.fnend
                                        @ -- End function
	.globl	mcl_fp_montRed7L                @ -- Begin function mcl_fp_montRed7L
	.p2align	2
	.type	mcl_fp_montRed7L,%function
	.code	32                              @ @mcl_fp_montRed7L
mcl_fp_montRed7L:
	.fnstart
@ %bb.0:
	.save	{r4, r5, r6, r7, r8, r9, r10, r11, lr}
	push	{r4, r5, r6, r7, r8, r9, r10, r11, lr}
	.pad	#84
	sub	sp, sp, #84
	mov	r9, r1
	str	r0, [sp, #48]                   @ 4-byte Spill
	ldr	r3, [r2, #-4]
	ldr	r0, [r9, #4]
	ldr	lr, [r9]
	str	r0, [sp, #44]                   @ 4-byte Spill
	ldr	r0, [r9, #8]
	str	r0, [sp, #40]                   @ 4-byte Spill
	ldr	r0, [r9, #12]
	str	r0, [sp, #36]                   @ 4-byte Spill
	mul	r0, lr, r3
	ldr	r8, [r2, #4]
	ldr	r1, [r2]
	str	r3, [sp, #60]                   @ 4-byte Spill
	ldr	r4, [r2, #8]
	str	r1, [sp, #80]                   @ 4-byte Spill
	umull	r7, r3, r0, r1
	str	r4, [sp, #64]                   @ 4-byte Spill
	mov	r10, r4
	str	r8, [sp, #52]                   @ 4-byte Spill
	umull	r5, r6, r0, r8
	str	r7, [sp, #32]                   @ 4-byte Spill
	adds	r5, r3, r5
	umull	r1, r5, r0, r4
	ldr	r4, [r2, #12]
	str	r4, [sp, #56]                   @ 4-byte Spill
	adcs	r6, r6, r1
	umlal	r3, r1, r0, r8
	umull	r6, r12, r0, r4
	adcs	r4, r5, r6
	ldr	r5, [r2, #16]
	str	r4, [sp, #28]                   @ 4-byte Spill
	str	r5, [sp, #76]                   @ 4-byte Spill
	umull	r6, r4, r0, r5
	adcs	r7, r12, r6
	ldr	r6, [r2, #20]
	str	r6, [sp, #72]                   @ 4-byte Spill
	str	r7, [sp, #24]                   @ 4-byte Spill
	umull	r11, r5, r0, r6
	adcs	r6, r4, r11
	ldr	r4, [r2, #24]
	str	r4, [sp, #68]                   @ 4-byte Spill
	umull	r2, r12, r0, r4
	ldr	r0, [sp, #44]                   @ 4-byte Reload
	adcs	r2, r5, r2
	ldr	r5, [sp, #32]                   @ 4-byte Reload
	adc	r4, r12, #0
	ldr	r12, [sp, #76]                  @ 4-byte Reload
	adds	r7, r5, lr
	ldr	lr, [sp, #68]                   @ 4-byte Reload
	adcs	r3, r3, r0
	ldr	r0, [sp, #40]                   @ 4-byte Reload
	str	r3, [sp, #16]                   @ 4-byte Spill
	mov	r7, r8
	adcs	r0, r1, r0
	str	r0, [sp, #44]                   @ 4-byte Spill
	ldr	r0, [sp, #36]                   @ 4-byte Reload
	ldr	r1, [sp, #28]                   @ 4-byte Reload
	adcs	r0, r1, r0
	str	r0, [sp, #40]                   @ 4-byte Spill
	ldr	r0, [r9, #16]
	ldr	r1, [sp, #24]                   @ 4-byte Reload
	adcs	r0, r1, r0
	str	r0, [sp, #36]                   @ 4-byte Spill
	ldr	r0, [r9, #20]
	adcs	r0, r6, r0
	str	r0, [sp, #32]                   @ 4-byte Spill
	ldr	r0, [r9, #24]
	adcs	r0, r2, r0
	str	r0, [sp, #28]                   @ 4-byte Spill
	ldr	r0, [r9, #28]
	adcs	r0, r4, r0
	str	r0, [sp, #24]                   @ 4-byte Spill
	mov	r0, #0
	ldr	r4, [sp, #80]                   @ 4-byte Reload
	adc	r0, r0, #0
	str	r0, [sp, #20]                   @ 4-byte Spill
	ldr	r0, [sp, #60]                   @ 4-byte Reload
	mul	r1, r0, r3
	umull	r2, r3, r1, r4
	str	r2, [sp, #12]                   @ 4-byte Spill
	umull	r8, r2, r1, r7
	umull	r6, r7, r1, r10
	adds	r3, r8, r3
	str	r3, [sp, #8]                    @ 4-byte Spill
	ldr	r3, [sp, #56]                   @ 4-byte Reload
	adcs	r2, r6, r2
	str	r2, [sp, #4]                    @ 4-byte Spill
	umull	r6, r2, r1, r3
	adcs	r7, r6, r7
	umull	r6, r8, r1, r12
	str	r7, [sp]                        @ 4-byte Spill
	ldr	r7, [sp, #72]                   @ 4-byte Reload
	adcs	r11, r6, r2
	umull	r6, r5, r1, r7
	adcs	r10, r6, r8
	umull	r6, r2, r1, lr
	adcs	r1, r6, r5
	ldr	r5, [sp, #20]                   @ 4-byte Reload
	ldr	r6, [sp, #12]                   @ 4-byte Reload
	adc	r5, r5, r2
	ldr	r2, [sp, #16]                   @ 4-byte Reload
	adds	r2, r6, r2
	ldr	r6, [sp, #8]                    @ 4-byte Reload
	ldr	r2, [sp, #44]                   @ 4-byte Reload
	adcs	r8, r6, r2
	ldr	r2, [sp, #40]                   @ 4-byte Reload
	ldr	r6, [sp, #4]                    @ 4-byte Reload
	adcs	r2, r6, r2
	str	r2, [sp, #44]                   @ 4-byte Spill
	ldr	r2, [sp, #36]                   @ 4-byte Reload
	ldr	r6, [sp]                        @ 4-byte Reload
	adcs	r2, r6, r2
	str	r2, [sp, #40]                   @ 4-byte Spill
	ldr	r2, [sp, #32]                   @ 4-byte Reload
	ldr	r6, [r9, #32]
	adcs	r2, r11, r2
	str	r2, [sp, #36]                   @ 4-byte Spill
	ldr	r2, [sp, #28]                   @ 4-byte Reload
	mov	r11, r3
	adcs	r2, r10, r2
	str	r2, [sp, #32]                   @ 4-byte Spill
	ldr	r2, [sp, #24]                   @ 4-byte Reload
	ldr	r10, [sp, #64]                  @ 4-byte Reload
	adcs	r1, r1, r2
	str	r1, [sp, #28]                   @ 4-byte Spill
	adcs	r1, r5, r6
	str	r1, [sp, #24]                   @ 4-byte Spill
	mov	r1, #0
	adc	r1, r1, #0
	str	r1, [sp, #20]                   @ 4-byte Spill
	mul	r1, r0, r8
	umull	r0, r2, r1, r4
	str	r0, [sp, #16]                   @ 4-byte Spill
	ldr	r0, [sp, #52]                   @ 4-byte Reload
	umull	r5, r6, r1, r0
	adds	r2, r5, r2
	str	r2, [sp, #12]                   @ 4-byte Spill
	umull	r5, r2, r1, r10
	adcs	r4, r5, r6
	str	r4, [sp, #8]                    @ 4-byte Spill
	umull	r5, r4, r1, r3
	ldr	r6, [sp, #8]                    @ 4-byte Reload
	adcs	r2, r5, r2
	str	r2, [sp, #4]                    @ 4-byte Spill
	umull	r5, r2, r1, r12
	adcs	r4, r5, r4
	umull	r5, r12, r1, r7
	ldr	r7, [sp, #20]                   @ 4-byte Reload
	adcs	r2, r5, r2
	umull	r5, r3, r1, lr
	adcs	r1, r5, r12
	ldr	r12, [sp, #76]                  @ 4-byte Reload
	adc	r5, r7, r3
	ldr	r3, [sp, #16]                   @ 4-byte Reload
	ldr	r7, [sp, #12]                   @ 4-byte Reload
	adds	r3, r3, r8
	ldr	r8, [sp, #60]                   @ 4-byte Reload
	ldr	r3, [sp, #44]                   @ 4-byte Reload
	adcs	r7, r7, r3
	ldr	r3, [sp, #40]                   @ 4-byte Reload
	adcs	r3, r6, r3
	str	r3, [sp, #44]                   @ 4-byte Spill
	ldr	r3, [sp, #36]                   @ 4-byte Reload
	ldr	r6, [sp, #4]                    @ 4-byte Reload
	adcs	r3, r6, r3
	str	r3, [sp, #40]                   @ 4-byte Spill
	ldr	r3, [sp, #32]                   @ 4-byte Reload
	adcs	r3, r4, r3
	str	r3, [sp, #36]                   @ 4-byte Spill
	ldr	r3, [sp, #28]                   @ 4-byte Reload
	ldr	r4, [r9, #36]
	adcs	r2, r2, r3
	str	r2, [sp, #32]                   @ 4-byte Spill
	ldr	r2, [sp, #24]                   @ 4-byte Reload
	adcs	r1, r1, r2
	str	r1, [sp, #28]                   @ 4-byte Spill
	adcs	r1, r5, r4
	str	r1, [sp, #24]                   @ 4-byte Spill
	mov	r1, #0
	ldr	r2, [sp, #80]                   @ 4-byte Reload
	adc	r1, r1, #0
	str	r1, [sp, #20]                   @ 4-byte Spill
	mul	r1, r8, r7
	umull	r3, r5, r1, r2
	str	r3, [sp, #16]                   @ 4-byte Spill
	umull	r6, r3, r1, r0
	adds	r0, r6, r5
	umull	r6, r5, r1, r10
	str	r0, [sp, #12]                   @ 4-byte Spill
	adcs	r10, r6, r3
	umull	r6, r3, r1, r11
	adcs	r0, r6, r5
	umull	r6, lr, r1, r12
	str	r0, [sp, #8]                    @ 4-byte Spill
	ldr	r0, [sp, #72]                   @ 4-byte Reload
	ldr	r5, [sp, #68]                   @ 4-byte Reload
	adcs	r11, r6, r3
	umull	r6, r3, r1, r0
	adcs	r4, r6, lr
	umull	r6, r0, r1, r5
	adcs	r1, r6, r3
	ldr	r3, [sp, #20]                   @ 4-byte Reload
	ldr	r6, [sp, #8]                    @ 4-byte Reload
	adc	r0, r3, r0
	ldr	r3, [sp, #16]                   @ 4-byte Reload
	adds	r3, r3, r7
	ldr	r7, [sp, #12]                   @ 4-byte Reload
	ldr	r3, [sp, #44]                   @ 4-byte Reload
	adcs	r7, r7, r3
	ldr	r3, [sp, #40]                   @ 4-byte Reload
	adcs	r3, r10, r3
	str	r3, [sp, #44]                   @ 4-byte Spill
	ldr	r3, [sp, #36]                   @ 4-byte Reload
	mov	r10, r8
	adcs	r3, r6, r3
	str	r3, [sp, #40]                   @ 4-byte Spill
	ldr	r3, [sp, #32]                   @ 4-byte Reload
	adcs	r3, r11, r3
	str	r3, [sp, #36]                   @ 4-byte Spill
	ldr	r3, [sp, #28]                   @ 4-byte Reload
	ldr	r11, [sp, #52]                  @ 4-byte Reload
	adcs	r3, r4, r3
	str	r3, [sp, #32]                   @ 4-byte Spill
	ldr	r3, [sp, #24]                   @ 4-byte Reload
	ldr	r4, [r9, #40]
	adcs	r1, r1, r3
	str	r1, [sp, #28]                   @ 4-byte Spill
	mul	r1, r8, r7
	adcs	r0, r0, r4
	str	r0, [sp, #24]                   @ 4-byte Spill
	mov	r0, #0
	adc	r0, r0, #0
	str	r0, [sp, #20]                   @ 4-byte Spill
	umull	r0, r3, r1, r2
	str	r0, [sp, #16]                   @ 4-byte Spill
	umull	r6, r0, r1, r11
	adds	r8, r6, r3
	ldr	r3, [sp, #64]                   @ 4-byte Reload
	umull	r6, r2, r1, r3
	adcs	r0, r6, r0
	str	r0, [sp, #12]                   @ 4-byte Spill
	ldr	r0, [sp, #56]                   @ 4-byte Reload
	umull	r6, r3, r1, r0
	adcs	r2, r6, r2
	str	r2, [sp, #8]                    @ 4-byte Spill
	umull	r6, r2, r1, r12
	ldr	r12, [sp, #72]                  @ 4-byte Reload
	adcs	lr, r6, r3
	umull	r6, r3, r1, r12
	adcs	r4, r6, r2
	umull	r6, r2, r1, r5
	ldr	r5, [sp, #12]                   @ 4-byte Reload
	adcs	r1, r6, r3
	ldr	r3, [sp, #20]                   @ 4-byte Reload
	adc	r2, r3, r2
	ldr	r3, [sp, #16]                   @ 4-byte Reload
	adds	r3, r3, r7
	ldr	r3, [sp, #44]                   @ 4-byte Reload
	adcs	r8, r8, r3
	ldr	r3, [sp, #40]                   @ 4-byte Reload
	adcs	r3, r5, r3
	str	r3, [sp, #44]                   @ 4-byte Spill
	ldr	r3, [sp, #36]                   @ 4-byte Reload
	ldr	r5, [sp, #8]                    @ 4-byte Reload
	adcs	r3, r5, r3
	str	r3, [sp, #40]                   @ 4-byte Spill
	ldr	r3, [sp, #32]                   @ 4-byte Reload
	adcs	r3, lr, r3
	str	r3, [sp, #36]                   @ 4-byte Spill
	ldr	r3, [sp, #28]                   @ 4-byte Reload
	ldr	lr, [sp, #80]                   @ 4-byte Reload
	adcs	r3, r4, r3
	str	r3, [sp, #32]                   @ 4-byte Spill
	ldr	r3, [sp, #24]                   @ 4-byte Reload
	ldr	r4, [r9, #44]
	adcs	r1, r1, r3
	str	r1, [sp, #28]                   @ 4-byte Spill
	adcs	r1, r2, r4
	str	r1, [sp, #24]                   @ 4-byte Spill
	mov	r1, #0
	adc	r1, r1, #0
	str	r1, [sp, #20]                   @ 4-byte Spill
	mul	r1, r10, r8
	umull	r2, r5, r1, lr
	umull	r6, r3, r1, r11
	str	r2, [sp, #16]                   @ 4-byte Spill
	mov	r2, r11
	adds	r4, r6, r5
	ldr	r5, [sp, #64]                   @ 4-byte Reload
	str	r4, [sp, #12]                   @ 4-byte Spill
	umull	r6, r4, r1, r5
	adcs	r3, r6, r3
	str	r3, [sp, #8]                    @ 4-byte Spill
	umull	r6, r3, r1, r0
	adcs	r0, r6, r4
	str	r0, [sp, #4]                    @ 4-byte Spill
	ldr	r0, [sp, #76]                   @ 4-byte Reload
	umull	r6, r4, r1, r0
	adcs	r11, r6, r3
	umull	r6, r7, r1, r12
	ldr	r12, [sp, #68]                  @ 4-byte Reload
	adcs	r10, r6, r4
	umull	r6, r3, r1, r12
	ldr	r4, [sp, #8]                    @ 4-byte Reload
	adcs	r1, r6, r7
	ldr	r6, [sp, #20]                   @ 4-byte Reload
	ldr	r7, [sp, #12]                   @ 4-byte Reload
	adc	r6, r6, r3
	ldr	r3, [sp, #16]                   @ 4-byte Reload
	adds	r3, r3, r8
	ldr	r3, [sp, #44]                   @ 4-byte Reload
	adcs	r7, r7, r3
	ldr	r3, [sp, #40]                   @ 4-byte Reload
	adcs	r3, r4, r3
	str	r3, [sp, #44]                   @ 4-byte Spill
	ldr	r3, [sp, #36]                   @ 4-byte Reload
	ldr	r4, [sp, #4]                    @ 4-byte Reload
	adcs	r3, r4, r3
	str	r3, [sp, #40]                   @ 4-byte Spill
	ldr	r3, [sp, #32]                   @ 4-byte Reload
	ldr	r4, [r9, #48]
	adcs	r3, r11, r3
	str	r3, [sp, #36]                   @ 4-byte Spill
	ldr	r3, [sp, #28]                   @ 4-byte Reload
	adcs	r3, r10, r3
	str	r3, [sp, #32]                   @ 4-byte Spill
	ldr	r3, [sp, #24]                   @ 4-byte Reload
	ldr	r10, [sp, #72]                  @ 4-byte Reload
	adcs	r1, r1, r3
	str	r1, [sp, #28]                   @ 4-byte Spill
	adcs	r1, r6, r4
	ldr	r3, [sp, #60]                   @ 4-byte Reload
	str	r1, [sp, #24]                   @ 4-byte Spill
	mov	r1, #0
	adc	r1, r1, #0
	str	r1, [sp, #20]                   @ 4-byte Spill
	mul	r1, r3, r7
	umull	r4, r3, r1, lr
	str	r4, [sp, #60]                   @ 4-byte Spill
	umull	r6, r4, r1, r2
	adds	r11, r6, r3
	umull	r6, r2, r1, r5
	ldr	r5, [sp, #56]                   @ 4-byte Reload
	adcs	r8, r6, r4
	umull	r6, r3, r1, r5
	adcs	lr, r6, r2
	umull	r6, r2, r1, r0
	adcs	r4, r6, r3
	umull	r6, r3, r1, r10
	adcs	r2, r6, r2
	umull	r6, r0, r1, r12
	ldr	r1, [sp, #20]                   @ 4-byte Reload
	adcs	r12, r6, r3
	adc	r6, r1, r0
	ldr	r0, [sp, #60]                   @ 4-byte Reload
	ldr	r1, [sp, #40]                   @ 4-byte Reload
	adds	r0, r0, r7
	ldr	r0, [sp, #44]                   @ 4-byte Reload
	adcs	r0, r11, r0
	str	r0, [sp, #60]                   @ 4-byte Spill
	adcs	r7, r8, r1
	ldr	r1, [sp, #36]                   @ 4-byte Reload
	str	r7, [sp, #44]                   @ 4-byte Spill
	adcs	r11, lr, r1
	ldr	r1, [sp, #32]                   @ 4-byte Reload
	str	r11, [sp, #40]                  @ 4-byte Spill
	adcs	r1, r4, r1
	ldr	r4, [sp, #28]                   @ 4-byte Reload
	adcs	r3, r2, r4
	ldr	r2, [sp, #24]                   @ 4-byte Reload
	ldr	r4, [r9, #52]
	adcs	r8, r12, r2
	ldr	r2, [sp, #80]                   @ 4-byte Reload
	adc	r6, r6, r4
	subs	r9, r0, r2
	ldr	r0, [sp, #52]                   @ 4-byte Reload
	ldr	r2, [sp, #76]                   @ 4-byte Reload
	sbcs	lr, r7, r0
	ldr	r0, [sp, #64]                   @ 4-byte Reload
	sbcs	r0, r11, r0
	sbcs	r7, r1, r5
	sbcs	r5, r3, r2
	ldr	r2, [sp, #68]                   @ 4-byte Reload
	sbcs	r4, r8, r10
	sbcs	r11, r6, r2
	mov	r2, #0
	sbc	r12, r2, #0
	ands	r12, r12, #1
	movne	r11, r6
	movne	r4, r8
	movne	r5, r3
	cmp	r12, #0
	movne	r7, r1
	ldr	r1, [sp, #40]                   @ 4-byte Reload
	ldr	r6, [sp, #48]                   @ 4-byte Reload
	movne	r0, r1
	str	r0, [r6, #8]
	ldr	r0, [sp, #44]                   @ 4-byte Reload
	str	r11, [r6, #24]
	str	r4, [r6, #20]
	movne	lr, r0
	ldr	r0, [sp, #60]                   @ 4-byte Reload
	cmp	r12, #0
	str	r5, [r6, #16]
	str	r7, [r6, #12]
	movne	r9, r0
	str	lr, [r6, #4]
	str	r9, [r6]
	add	sp, sp, #84
	pop	{r4, r5, r6, r7, r8, r9, r10, r11, lr}
	mov	pc, lr
.Lfunc_end28:
	.size	mcl_fp_montRed7L, .Lfunc_end28-mcl_fp_montRed7L
	.cantunwind
	.fnend
                                        @ -- End function
	.globl	mcl_fp_montRedNF7L              @ -- Begin function mcl_fp_montRedNF7L
	.p2align	2
	.type	mcl_fp_montRedNF7L,%function
	.code	32                              @ @mcl_fp_montRedNF7L
mcl_fp_montRedNF7L:
	.fnstart
@ %bb.0:
	.save	{r4, r5, r6, r7, r8, r9, r10, r11, lr}
	push	{r4, r5, r6, r7, r8, r9, r10, r11, lr}
	.pad	#84
	sub	sp, sp, #84
	mov	r9, r1
	str	r0, [sp, #48]                   @ 4-byte Spill
	ldr	r3, [r2, #-4]
	ldr	r0, [r9, #4]
	ldr	lr, [r9]
	str	r0, [sp, #44]                   @ 4-byte Spill
	ldr	r0, [r9, #8]
	str	r0, [sp, #40]                   @ 4-byte Spill
	ldr	r0, [r9, #12]
	str	r0, [sp, #36]                   @ 4-byte Spill
	mul	r0, lr, r3
	ldr	r8, [r2, #4]
	ldr	r1, [r2]
	str	r3, [sp, #60]                   @ 4-byte Spill
	ldr	r4, [r2, #8]
	str	r1, [sp, #80]                   @ 4-byte Spill
	umull	r7, r3, r0, r1
	str	r4, [sp, #64]                   @ 4-byte Spill
	mov	r10, r4
	str	r8, [sp, #52]                   @ 4-byte Spill
	umull	r5, r6, r0, r8
	str	r7, [sp, #32]                   @ 4-byte Spill
	adds	r5, r3, r5
	umull	r1, r5, r0, r4
	ldr	r4, [r2, #12]
	str	r4, [sp, #56]                   @ 4-byte Spill
	adcs	r6, r6, r1
	umlal	r3, r1, r0, r8
	umull	r6, r12, r0, r4
	adcs	r4, r5, r6
	ldr	r5, [r2, #16]
	str	r4, [sp, #28]                   @ 4-byte Spill
	str	r5, [sp, #76]                   @ 4-byte Spill
	umull	r6, r4, r0, r5
	adcs	r7, r12, r6
	ldr	r6, [r2, #20]
	str	r6, [sp, #72]                   @ 4-byte Spill
	str	r7, [sp, #24]                   @ 4-byte Spill
	umull	r11, r5, r0, r6
	adcs	r6, r4, r11
	ldr	r4, [r2, #24]
	str	r4, [sp, #68]                   @ 4-byte Spill
	umull	r2, r12, r0, r4
	ldr	r0, [sp, #44]                   @ 4-byte Reload
	adcs	r2, r5, r2
	ldr	r5, [sp, #32]                   @ 4-byte Reload
	adc	r4, r12, #0
	ldr	r12, [sp, #76]                  @ 4-byte Reload
	adds	r7, r5, lr
	ldr	lr, [sp, #68]                   @ 4-byte Reload
	adcs	r3, r3, r0
	ldr	r0, [sp, #40]                   @ 4-byte Reload
	str	r3, [sp, #16]                   @ 4-byte Spill
	mov	r7, r8
	adcs	r0, r1, r0
	str	r0, [sp, #44]                   @ 4-byte Spill
	ldr	r0, [sp, #36]                   @ 4-byte Reload
	ldr	r1, [sp, #28]                   @ 4-byte Reload
	adcs	r0, r1, r0
	str	r0, [sp, #40]                   @ 4-byte Spill
	ldr	r0, [r9, #16]
	ldr	r1, [sp, #24]                   @ 4-byte Reload
	adcs	r0, r1, r0
	str	r0, [sp, #36]                   @ 4-byte Spill
	ldr	r0, [r9, #20]
	adcs	r0, r6, r0
	str	r0, [sp, #32]                   @ 4-byte Spill
	ldr	r0, [r9, #24]
	adcs	r0, r2, r0
	str	r0, [sp, #28]                   @ 4-byte Spill
	ldr	r0, [r9, #28]
	adcs	r0, r4, r0
	str	r0, [sp, #24]                   @ 4-byte Spill
	mov	r0, #0
	ldr	r4, [sp, #80]                   @ 4-byte Reload
	adc	r0, r0, #0
	str	r0, [sp, #20]                   @ 4-byte Spill
	ldr	r0, [sp, #60]                   @ 4-byte Reload
	mul	r1, r0, r3
	umull	r2, r3, r1, r4
	str	r2, [sp, #12]                   @ 4-byte Spill
	umull	r8, r2, r1, r7
	umull	r6, r7, r1, r10
	adds	r3, r8, r3
	str	r3, [sp, #8]                    @ 4-byte Spill
	ldr	r3, [sp, #56]                   @ 4-byte Reload
	adcs	r2, r6, r2
	str	r2, [sp, #4]                    @ 4-byte Spill
	umull	r6, r2, r1, r3
	adcs	r7, r6, r7
	umull	r6, r8, r1, r12
	str	r7, [sp]                        @ 4-byte Spill
	ldr	r7, [sp, #72]                   @ 4-byte Reload
	adcs	r11, r6, r2
	umull	r6, r5, r1, r7
	adcs	r10, r6, r8
	umull	r6, r2, r1, lr
	adcs	r1, r6, r5
	ldr	r5, [sp, #20]                   @ 4-byte Reload
	ldr	r6, [sp, #12]                   @ 4-byte Reload
	adc	r5, r5, r2
	ldr	r2, [sp, #16]                   @ 4-byte Reload
	adds	r2, r6, r2
	ldr	r6, [sp, #8]                    @ 4-byte Reload
	ldr	r2, [sp, #44]                   @ 4-byte Reload
	adcs	r8, r6, r2
	ldr	r2, [sp, #40]                   @ 4-byte Reload
	ldr	r6, [sp, #4]                    @ 4-byte Reload
	adcs	r2, r6, r2
	str	r2, [sp, #44]                   @ 4-byte Spill
	ldr	r2, [sp, #36]                   @ 4-byte Reload
	ldr	r6, [sp]                        @ 4-byte Reload
	adcs	r2, r6, r2
	str	r2, [sp, #40]                   @ 4-byte Spill
	ldr	r2, [sp, #32]                   @ 4-byte Reload
	ldr	r6, [r9, #32]
	adcs	r2, r11, r2
	str	r2, [sp, #36]                   @ 4-byte Spill
	ldr	r2, [sp, #28]                   @ 4-byte Reload
	mov	r11, r3
	adcs	r2, r10, r2
	str	r2, [sp, #32]                   @ 4-byte Spill
	ldr	r2, [sp, #24]                   @ 4-byte Reload
	ldr	r10, [sp, #64]                  @ 4-byte Reload
	adcs	r1, r1, r2
	str	r1, [sp, #28]                   @ 4-byte Spill
	adcs	r1, r5, r6
	str	r1, [sp, #24]                   @ 4-byte Spill
	mov	r1, #0
	adc	r1, r1, #0
	str	r1, [sp, #20]                   @ 4-byte Spill
	mul	r1, r0, r8
	umull	r0, r2, r1, r4
	str	r0, [sp, #16]                   @ 4-byte Spill
	ldr	r0, [sp, #52]                   @ 4-byte Reload
	umull	r5, r6, r1, r0
	adds	r2, r5, r2
	str	r2, [sp, #12]                   @ 4-byte Spill
	umull	r5, r2, r1, r10
	adcs	r4, r5, r6
	str	r4, [sp, #8]                    @ 4-byte Spill
	umull	r5, r4, r1, r3
	ldr	r6, [sp, #8]                    @ 4-byte Reload
	adcs	r2, r5, r2
	str	r2, [sp, #4]                    @ 4-byte Spill
	umull	r5, r2, r1, r12
	adcs	r4, r5, r4
	umull	r5, r12, r1, r7
	ldr	r7, [sp, #20]                   @ 4-byte Reload
	adcs	r2, r5, r2
	umull	r5, r3, r1, lr
	adcs	r1, r5, r12
	ldr	r12, [sp, #76]                  @ 4-byte Reload
	adc	r5, r7, r3
	ldr	r3, [sp, #16]                   @ 4-byte Reload
	ldr	r7, [sp, #12]                   @ 4-byte Reload
	adds	r3, r3, r8
	ldr	r8, [sp, #60]                   @ 4-byte Reload
	ldr	r3, [sp, #44]                   @ 4-byte Reload
	adcs	r7, r7, r3
	ldr	r3, [sp, #40]                   @ 4-byte Reload
	adcs	r3, r6, r3
	str	r3, [sp, #44]                   @ 4-byte Spill
	ldr	r3, [sp, #36]                   @ 4-byte Reload
	ldr	r6, [sp, #4]                    @ 4-byte Reload
	adcs	r3, r6, r3
	str	r3, [sp, #40]                   @ 4-byte Spill
	ldr	r3, [sp, #32]                   @ 4-byte Reload
	adcs	r3, r4, r3
	str	r3, [sp, #36]                   @ 4-byte Spill
	ldr	r3, [sp, #28]                   @ 4-byte Reload
	ldr	r4, [r9, #36]
	adcs	r2, r2, r3
	str	r2, [sp, #32]                   @ 4-byte Spill
	ldr	r2, [sp, #24]                   @ 4-byte Reload
	adcs	r1, r1, r2
	str	r1, [sp, #28]                   @ 4-byte Spill
	adcs	r1, r5, r4
	str	r1, [sp, #24]                   @ 4-byte Spill
	mov	r1, #0
	ldr	r2, [sp, #80]                   @ 4-byte Reload
	adc	r1, r1, #0
	str	r1, [sp, #20]                   @ 4-byte Spill
	mul	r1, r8, r7
	umull	r3, r5, r1, r2
	str	r3, [sp, #16]                   @ 4-byte Spill
	umull	r6, r3, r1, r0
	adds	r0, r6, r5
	umull	r6, r5, r1, r10
	str	r0, [sp, #12]                   @ 4-byte Spill
	adcs	r10, r6, r3
	umull	r6, r3, r1, r11
	ldr	r11, [sp, #72]                  @ 4-byte Reload
	adcs	r0, r6, r5
	umull	r6, lr, r1, r12
	str	r0, [sp, #8]                    @ 4-byte Spill
	adcs	r5, r6, r3
	umull	r6, r3, r1, r11
	adcs	r4, r6, lr
	ldr	lr, [sp, #68]                   @ 4-byte Reload
	umull	r6, r0, r1, lr
	adcs	r1, r6, r3
	ldr	r3, [sp, #20]                   @ 4-byte Reload
	ldr	r6, [sp, #12]                   @ 4-byte Reload
	adc	r0, r3, r0
	ldr	r3, [sp, #16]                   @ 4-byte Reload
	adds	r3, r3, r7
	ldr	r3, [sp, #44]                   @ 4-byte Reload
	adcs	r7, r6, r3
	ldr	r3, [sp, #40]                   @ 4-byte Reload
	ldr	r6, [sp, #8]                    @ 4-byte Reload
	adcs	r3, r10, r3
	str	r3, [sp, #44]                   @ 4-byte Spill
	ldr	r3, [sp, #36]                   @ 4-byte Reload
	ldr	r10, [sp, #52]                  @ 4-byte Reload
	adcs	r3, r6, r3
	str	r3, [sp, #40]                   @ 4-byte Spill
	ldr	r3, [sp, #32]                   @ 4-byte Reload
	adcs	r3, r5, r3
	str	r3, [sp, #36]                   @ 4-byte Spill
	ldr	r3, [sp, #28]                   @ 4-byte Reload
	adcs	r3, r4, r3
	str	r3, [sp, #32]                   @ 4-byte Spill
	ldr	r3, [sp, #24]                   @ 4-byte Reload
	ldr	r4, [r9, #40]
	adcs	r1, r1, r3
	str	r1, [sp, #28]                   @ 4-byte Spill
	mul	r1, r8, r7
	adcs	r0, r0, r4
	str	r0, [sp, #24]                   @ 4-byte Spill
	mov	r0, #0
	ldr	r3, [sp, #64]                   @ 4-byte Reload
	adc	r0, r0, #0
	str	r0, [sp, #20]                   @ 4-byte Spill
	umull	r0, r5, r1, r2
	str	r0, [sp, #16]                   @ 4-byte Spill
	umull	r6, r0, r1, r10
	adds	r2, r6, r5
	str	r2, [sp, #12]                   @ 4-byte Spill
	umull	r6, r2, r1, r3
	adcs	r0, r6, r0
	str	r0, [sp, #8]                    @ 4-byte Spill
	ldr	r0, [sp, #56]                   @ 4-byte Reload
	umull	r6, r3, r1, r0
	adcs	r2, r6, r2
	str	r2, [sp, #4]                    @ 4-byte Spill
	umull	r6, r2, r1, r12
	adcs	r5, r6, r3
	umull	r6, r3, r1, r11
	adcs	r4, r6, r2
	umull	r6, r2, r1, lr
	ldr	lr, [sp, #76]                   @ 4-byte Reload
	adcs	r1, r6, r3
	ldr	r3, [sp, #20]                   @ 4-byte Reload
	adc	r2, r3, r2
	ldr	r3, [sp, #16]                   @ 4-byte Reload
	adds	r3, r3, r7
	ldr	r7, [sp, #12]                   @ 4-byte Reload
	ldr	r3, [sp, #44]                   @ 4-byte Reload
	adcs	r12, r7, r3
	ldr	r3, [sp, #40]                   @ 4-byte Reload
	ldr	r7, [sp, #8]                    @ 4-byte Reload
	adcs	r3, r7, r3
	str	r3, [sp, #44]                   @ 4-byte Spill
	ldr	r3, [sp, #36]                   @ 4-byte Reload
	ldr	r7, [sp, #4]                    @ 4-byte Reload
	adcs	r3, r7, r3
	str	r3, [sp, #40]                   @ 4-byte Spill
	ldr	r3, [sp, #32]                   @ 4-byte Reload
	ldr	r7, [sp, #64]                   @ 4-byte Reload
	adcs	r3, r5, r3
	str	r3, [sp, #36]                   @ 4-byte Spill
	ldr	r3, [sp, #28]                   @ 4-byte Reload
	adcs	r3, r4, r3
	str	r3, [sp, #32]                   @ 4-byte Spill
	ldr	r3, [sp, #24]                   @ 4-byte Reload
	ldr	r4, [r9, #44]
	adcs	r1, r1, r3
	str	r1, [sp, #28]                   @ 4-byte Spill
	adcs	r1, r2, r4
	str	r1, [sp, #24]                   @ 4-byte Spill
	mov	r1, #0
	ldr	r2, [sp, #80]                   @ 4-byte Reload
	adc	r1, r1, #0
	str	r1, [sp, #20]                   @ 4-byte Spill
	mul	r1, r8, r12
	umull	r3, r5, r1, r2
	str	r3, [sp, #16]                   @ 4-byte Spill
	umull	r6, r3, r1, r10
	adds	r10, r6, r5
	umull	r6, r5, r1, r7
	adcs	r3, r6, r3
	str	r3, [sp, #12]                   @ 4-byte Spill
	umull	r6, r3, r1, r0
	adcs	r0, r6, r5
	umull	r6, r11, r1, lr
	str	r0, [sp, #8]                    @ 4-byte Spill
	ldr	r0, [sp, #72]                   @ 4-byte Reload
	ldr	r5, [sp, #68]                   @ 4-byte Reload
	adcs	r8, r6, r3
	umull	r6, r4, r1, r0
	adcs	r11, r6, r11
	umull	r6, r3, r1, r5
	adcs	r1, r6, r4
	ldr	r4, [sp, #20]                   @ 4-byte Reload
	adc	r6, r4, r3
	ldr	r3, [sp, #16]                   @ 4-byte Reload
	ldr	r4, [sp, #12]                   @ 4-byte Reload
	adds	r3, r3, r12
	ldr	r3, [sp, #44]                   @ 4-byte Reload
	adcs	r10, r10, r3
	ldr	r3, [sp, #40]                   @ 4-byte Reload
	adcs	r3, r4, r3
	str	r3, [sp, #44]                   @ 4-byte Spill
	ldr	r3, [sp, #36]                   @ 4-byte Reload
	ldr	r4, [sp, #8]                    @ 4-byte Reload
	adcs	r3, r4, r3
	str	r3, [sp, #40]                   @ 4-byte Spill
	ldr	r3, [sp, #32]                   @ 4-byte Reload
	ldr	r4, [r9, #48]
	adcs	r3, r8, r3
	str	r3, [sp, #36]                   @ 4-byte Spill
	ldr	r3, [sp, #28]                   @ 4-byte Reload
	ldr	r8, [sp, #52]                   @ 4-byte Reload
	adcs	r3, r11, r3
	str	r3, [sp, #32]                   @ 4-byte Spill
	ldr	r3, [sp, #24]                   @ 4-byte Reload
	adcs	r1, r1, r3
	str	r1, [sp, #28]                   @ 4-byte Spill
	adcs	r1, r6, r4
	ldr	r3, [sp, #60]                   @ 4-byte Reload
	str	r1, [sp, #24]                   @ 4-byte Spill
	mov	r1, #0
	adc	r1, r1, #0
	str	r1, [sp, #20]                   @ 4-byte Spill
	mul	r1, r3, r10
	umull	r3, r4, r1, r2
	str	r3, [sp, #60]                   @ 4-byte Spill
	umull	r6, r3, r1, r8
	adds	r4, r6, r4
	umull	r6, r2, r1, r7
	ldr	r7, [sp, #56]                   @ 4-byte Reload
	adcs	r11, r6, r3
	umull	r6, r3, r1, r7
	adcs	r12, r6, r2
	umull	r6, r2, r1, lr
	adcs	lr, r6, r3
	umull	r6, r3, r1, r0
	adcs	r2, r6, r2
	umull	r6, r0, r1, r5
	ldr	r1, [sp, #20]                   @ 4-byte Reload
	ldr	r5, [sp, #36]                   @ 4-byte Reload
	adcs	r3, r6, r3
	adc	r6, r1, r0
	ldr	r0, [sp, #60]                   @ 4-byte Reload
	ldr	r1, [sp, #40]                   @ 4-byte Reload
	adds	r0, r0, r10
	ldr	r0, [sp, #44]                   @ 4-byte Reload
	adcs	r0, r4, r0
	ldr	r4, [sp, #32]                   @ 4-byte Reload
	adcs	r1, r11, r1
	str	r0, [sp, #60]                   @ 4-byte Spill
	adcs	r5, r12, r5
	adcs	r10, lr, r4
	ldr	r4, [sp, #28]                   @ 4-byte Reload
	adcs	r12, r2, r4
	ldr	r2, [sp, #24]                   @ 4-byte Reload
	ldr	r4, [r9, #52]
	mov	r9, r1
	adcs	r3, r3, r2
	ldr	r2, [sp, #80]                   @ 4-byte Reload
	adc	r6, r6, r4
	subs	lr, r0, r2
	ldr	r0, [sp, #64]                   @ 4-byte Reload
	sbcs	r2, r1, r8
	mov	r8, r5
	sbcs	r1, r5, r0
	ldr	r0, [sp, #76]                   @ 4-byte Reload
	sbcs	r7, r10, r7
	sbcs	r5, r12, r0
	ldr	r0, [sp, #72]                   @ 4-byte Reload
	sbcs	r4, r3, r0
	ldr	r0, [sp, #68]                   @ 4-byte Reload
	sbc	r11, r6, r0
	asr	r0, r11, #31
	cmn	r0, #1
	movgt	r6, r11
	movle	r4, r3
	movle	r5, r12
	cmn	r0, #1
	movle	r7, r10
	movle	r1, r8
	movle	r2, r9
	cmn	r0, #1
	ldr	r0, [sp, #60]                   @ 4-byte Reload
	ldr	r11, [sp, #48]                  @ 4-byte Reload
	movle	lr, r0
	str	r6, [r11, #24]
	str	r4, [r11, #20]
	str	r5, [r11, #16]
	str	r7, [r11, #12]
	str	r1, [r11, #8]
	str	r2, [r11, #4]
	str	lr, [r11]
	add	sp, sp, #84
	pop	{r4, r5, r6, r7, r8, r9, r10, r11, lr}
	mov	pc, lr
.Lfunc_end29:
	.size	mcl_fp_montRedNF7L, .Lfunc_end29-mcl_fp_montRedNF7L
	.cantunwind
	.fnend
                                        @ -- End function
	.globl	mcl_fp_addPre7L                 @ -- Begin function mcl_fp_addPre7L
	.p2align	2
	.type	mcl_fp_addPre7L,%function
	.code	32                              @ @mcl_fp_addPre7L
mcl_fp_addPre7L:
	.fnstart
@ %bb.0:
	.save	{r4, r5, r6, r7, r8, lr}
	push	{r4, r5, r6, r7, r8, lr}
	ldm	r2, {r3, r12, lr}
	ldm	r1, {r5, r6, r7}
	adds	r3, r5, r3
	str	r3, [r0]
	adcs	r3, r6, r12
	ldr	r8, [r2, #12]
	ldr	r4, [r1, #12]
	str	r3, [r0, #4]
	adcs	r3, r7, lr
	str	r3, [r0, #8]
	adcs	r3, r4, r8
	str	r3, [r0, #12]
	ldr	r3, [r2, #16]
	ldr	r7, [r1, #16]
	adcs	r3, r7, r3
	str	r3, [r0, #16]
	ldr	r3, [r2, #20]
	ldr	r7, [r1, #20]
	ldr	r2, [r2, #24]
	ldr	r1, [r1, #24]
	adcs	r3, r7, r3
	str	r3, [r0, #20]
	adcs	r1, r1, r2
	str	r1, [r0, #24]
	mov	r0, #0
	adc	r0, r0, #0
	pop	{r4, r5, r6, r7, r8, lr}
	mov	pc, lr
.Lfunc_end30:
	.size	mcl_fp_addPre7L, .Lfunc_end30-mcl_fp_addPre7L
	.cantunwind
	.fnend
                                        @ -- End function
	.globl	mcl_fp_subPre7L                 @ -- Begin function mcl_fp_subPre7L
	.p2align	2
	.type	mcl_fp_subPre7L,%function
	.code	32                              @ @mcl_fp_subPre7L
mcl_fp_subPre7L:
	.fnstart
@ %bb.0:
	.save	{r4, r5, r6, r7, r8, lr}
	push	{r4, r5, r6, r7, r8, lr}
	ldm	r2, {r3, r12, lr}
	ldm	r1, {r5, r6, r7}
	subs	r3, r5, r3
	str	r3, [r0]
	sbcs	r3, r6, r12
	ldr	r8, [r2, #12]
	ldr	r4, [r1, #12]
	str	r3, [r0, #4]
	sbcs	r3, r7, lr
	str	r3, [r0, #8]
	sbcs	r3, r4, r8
	str	r3, [r0, #12]
	ldr	r3, [r2, #16]
	ldr	r7, [r1, #16]
	sbcs	r3, r7, r3
	str	r3, [r0, #16]
	ldr	r3, [r2, #20]
	ldr	r7, [r1, #20]
	ldr	r2, [r2, #24]
	ldr	r1, [r1, #24]
	sbcs	r3, r7, r3
	str	r3, [r0, #20]
	sbcs	r1, r1, r2
	str	r1, [r0, #24]
	mov	r0, #0
	sbc	r0, r0, #0
	and	r0, r0, #1
	pop	{r4, r5, r6, r7, r8, lr}
	mov	pc, lr
.Lfunc_end31:
	.size	mcl_fp_subPre7L, .Lfunc_end31-mcl_fp_subPre7L
	.cantunwind
	.fnend
                                        @ -- End function
	.globl	mcl_fp_shr1_7L                  @ -- Begin function mcl_fp_shr1_7L
	.p2align	2
	.type	mcl_fp_shr1_7L,%function
	.code	32                              @ @mcl_fp_shr1_7L
mcl_fp_shr1_7L:
	.fnstart
@ %bb.0:
	.save	{r4, r5, r6, r7, r8, lr}
	push	{r4, r5, r6, r7, r8, lr}
	add	r5, r1, #8
	ldm	r1, {r12, lr}
	ldr	r1, [r1, #24]
	ldm	r5, {r2, r3, r4, r5}
	lsr	r6, r5, #1
	lsr	r7, r3, #1
	lsrs	r5, r5, #1
	orr	r8, r6, r1, lsl #31
	lsr	r6, lr, #1
	orr	r7, r7, r4, lsl #31
	rrx	r4, r4
	lsrs	r3, r3, #1
	orr	r6, r6, r2, lsl #31
	rrx	r2, r2
	lsrs	r3, lr, #1
	lsr	r1, r1, #1
	rrx	r3, r12
	stm	r0, {r3, r6}
	str	r2, [r0, #8]
	str	r7, [r0, #12]
	str	r4, [r0, #16]
	str	r8, [r0, #20]
	str	r1, [r0, #24]
	pop	{r4, r5, r6, r7, r8, lr}
	mov	pc, lr
.Lfunc_end32:
	.size	mcl_fp_shr1_7L, .Lfunc_end32-mcl_fp_shr1_7L
	.cantunwind
	.fnend
                                        @ -- End function
	.globl	mcl_fp_add7L                    @ -- Begin function mcl_fp_add7L
	.p2align	2
	.type	mcl_fp_add7L,%function
	.code	32                              @ @mcl_fp_add7L
mcl_fp_add7L:
	.fnstart
@ %bb.0:
	.save	{r4, r5, r6, r7, r8, r9, r10, r11, lr}
	push	{r4, r5, r6, r7, r8, r9, r10, r11, lr}
	.pad	#12
	sub	sp, sp, #12
	ldr	r9, [r2]
	ldm	r1, {r6, r7}
	ldmib	r2, {r8, r12}
	adds	r5, r6, r9
	ldr	r4, [r1, #8]
	adcs	r7, r7, r8
	ldr	r11, [r2, #12]
	ldr	lr, [r1, #12]
	adcs	r9, r4, r12
	ldr	r6, [r2, #16]
	ldr	r4, [r1, #16]
	adcs	r8, lr, r11
	ldr	r10, [r2, #20]
	adcs	r11, r4, r6
	ldr	r4, [r1, #20]
	ldr	r2, [r2, #24]
	ldr	r1, [r1, #24]
	adcs	r4, r4, r10
	str	r5, [sp, #8]                    @ 4-byte Spill
	adcs	r6, r1, r2
	mov	r1, #0
	ldr	r2, [r3]
	adc	r1, r1, #0
	ldr	r10, [sp, #8]                   @ 4-byte Reload
	str	r7, [sp, #4]                    @ 4-byte Spill
	stm	r0, {r5, r7, r9}
	subs	r10, r10, r2
	str	r1, [sp]                        @ 4-byte Spill
	ldmib	r3, {r1, r5, r7, r12, lr}
	ldr	r2, [sp, #4]                    @ 4-byte Reload
	ldr	r3, [r3, #24]
	sbcs	r2, r2, r1
	str	r4, [r0, #20]
	sbcs	r9, r9, r5
	str	r8, [r0, #12]
	sbcs	r1, r8, r7
	str	r11, [r0, #16]
	sbcs	r7, r11, r12
	str	r6, [r0, #24]
	sbcs	r4, r4, lr
	sbcs	r5, r6, r3
	ldr	r3, [sp]                        @ 4-byte Reload
	sbc	r3, r3, #0
	tst	r3, #1
	bne	.LBB33_2
@ %bb.1:                                @ %nocarry
	str	r10, [r0]
	stmib	r0, {r2, r9}
	str	r1, [r0, #12]
	str	r7, [r0, #16]
	str	r4, [r0, #20]
	str	r5, [r0, #24]
.LBB33_2:                               @ %carry
	add	sp, sp, #12
	pop	{r4, r5, r6, r7, r8, r9, r10, r11, lr}
	mov	pc, lr
.Lfunc_end33:
	.size	mcl_fp_add7L, .Lfunc_end33-mcl_fp_add7L
	.cantunwind
	.fnend
                                        @ -- End function
	.globl	mcl_fp_addNF7L                  @ -- Begin function mcl_fp_addNF7L
	.p2align	2
	.type	mcl_fp_addNF7L,%function
	.code	32                              @ @mcl_fp_addNF7L
mcl_fp_addNF7L:
	.fnstart
@ %bb.0:
	.save	{r4, r5, r6, r7, r8, r9, r10, r11, lr}
	push	{r4, r5, r6, r7, r8, r9, r10, r11, lr}
	.pad	#16
	sub	sp, sp, #16
	ldm	r1, {r5, r7}
	add	r11, r1, #8
	add	lr, r2, #12
	str	r7, [sp, #8]                    @ 4-byte Spill
	ldr	r7, [r1, #20]
	ldr	r8, [r1, #24]
	ldm	r2, {r1, r4, r12}
	adds	r1, r1, r5
	ldr	r5, [sp, #8]                    @ 4-byte Reload
	ldm	r11, {r9, r10, r11}
	adcs	r5, r4, r5
	str	r7, [sp, #4]                    @ 4-byte Spill
	adcs	r4, r12, r9
	ldm	lr, {r6, r7, lr}
	adcs	r10, r6, r10
	str	r4, [sp]                        @ 4-byte Spill
	adcs	r9, r7, r11
	ldr	r7, [sp, #4]                    @ 4-byte Reload
	ldr	r2, [r2, #24]
	ldm	r3, {r4, r12}
	adcs	r7, lr, r7
	adc	r2, r2, r8
	subs	r4, r1, r4
	str	r5, [sp, #8]                    @ 4-byte Spill
	sbcs	r5, r5, r12
	ldr	r6, [r3, #8]
	ldr	r12, [sp]                       @ 4-byte Reload
	ldr	lr, [r3, #12]
	sbcs	r6, r12, r6
	ldr	r8, [r3, #16]
	sbcs	lr, r10, lr
	ldr	r11, [r3, #20]
	sbcs	r8, r9, r8
	ldr	r3, [r3, #24]
	sbcs	r11, r7, r11
	str	r1, [sp, #12]                   @ 4-byte Spill
	sbc	r3, r2, r3
	asr	r1, r3, #31
	cmn	r1, #1
	movgt	r2, r3
	movle	r11, r7
	str	r2, [r0, #24]
	movle	r8, r9
	ldr	r2, [sp, #8]                    @ 4-byte Reload
	cmn	r1, #1
	movle	lr, r10
	movle	r6, r12
	str	r11, [r0, #20]
	movle	r5, r2
	cmn	r1, #1
	ldr	r1, [sp, #12]                   @ 4-byte Reload
	str	r8, [r0, #16]
	str	lr, [r0, #12]
	movle	r4, r1
	str	r6, [r0, #8]
	str	r5, [r0, #4]
	str	r4, [r0]
	add	sp, sp, #16
	pop	{r4, r5, r6, r7, r8, r9, r10, r11, lr}
	mov	pc, lr
.Lfunc_end34:
	.size	mcl_fp_addNF7L, .Lfunc_end34-mcl_fp_addNF7L
	.cantunwind
	.fnend
                                        @ -- End function
	.globl	mcl_fp_sub7L                    @ -- Begin function mcl_fp_sub7L
	.p2align	2
	.type	mcl_fp_sub7L,%function
	.code	32                              @ @mcl_fp_sub7L
mcl_fp_sub7L:
	.fnstart
@ %bb.0:
	.save	{r4, r5, r6, r7, r8, r9, r10, lr}
	push	{r4, r5, r6, r7, r8, r9, r10, lr}
	ldr	r9, [r2]
	ldm	r1, {r4, r5, r6, r7}
	ldmib	r2, {r8, lr}
	subs	r4, r4, r9
	sbcs	r8, r5, r8
	ldr	r12, [r2, #12]
	sbcs	r9, r6, lr
	ldr	r6, [r2, #16]
	sbcs	r10, r7, r12
	ldr	r7, [r1, #16]
	ldr	r5, [r2, #20]
	sbcs	lr, r7, r6
	ldr	r7, [r1, #20]
	ldr	r2, [r2, #24]
	ldr	r1, [r1, #24]
	sbcs	r12, r7, r5
	stm	r0, {r4, r8, r9, r10, lr}
	sbcs	r1, r1, r2
	mov	r2, #0
	str	r12, [r0, #20]
	sbc	r2, r2, #0
	str	r1, [r0, #24]
	tst	r2, #1
	bne	.LBB35_2
@ %bb.1:                                @ %nocarry
	pop	{r4, r5, r6, r7, r8, r9, r10, lr}
	mov	pc, lr
.LBB35_2:                               @ %carry
	ldm	r3, {r2, r5, r6, r7}
	adds	r2, r2, r4
	str	r2, [r0]
	adcs	r2, r5, r8
	str	r2, [r0, #4]
	adcs	r2, r6, r9
	str	r2, [r0, #8]
	adcs	r2, r7, r10
	str	r2, [r0, #12]
	ldr	r2, [r3, #16]
	adcs	r2, r2, lr
	str	r2, [r0, #16]
	ldr	r2, [r3, #20]
	adcs	r2, r2, r12
	str	r2, [r0, #20]
	ldr	r2, [r3, #24]
	adc	r1, r2, r1
	str	r1, [r0, #24]
	pop	{r4, r5, r6, r7, r8, r9, r10, lr}
	mov	pc, lr
.Lfunc_end35:
	.size	mcl_fp_sub7L, .Lfunc_end35-mcl_fp_sub7L
	.cantunwind
	.fnend
                                        @ -- End function
	.globl	mcl_fp_subNF7L                  @ -- Begin function mcl_fp_subNF7L
	.p2align	2
	.type	mcl_fp_subNF7L,%function
	.code	32                              @ @mcl_fp_subNF7L
mcl_fp_subNF7L:
	.fnstart
@ %bb.0:
	.save	{r4, r5, r6, r7, r8, r9, r10, r11, lr}
	push	{r4, r5, r6, r7, r8, r9, r10, r11, lr}
	.pad	#20
	sub	sp, sp, #20
	ldm	r2, {r5, r7}
	add	r11, r2, #8
	add	lr, r1, #12
	str	r7, [sp, #12]                   @ 4-byte Spill
	ldr	r7, [r2, #20]
	ldr	r8, [r2, #24]
	ldm	r1, {r2, r4, r12}
	subs	r2, r2, r5
	ldr	r5, [sp, #12]                   @ 4-byte Reload
	ldm	r11, {r9, r10, r11}
	sbcs	r5, r4, r5
	str	r7, [sp, #4]                    @ 4-byte Spill
	sbcs	r4, r12, r9
	ldm	lr, {r6, r7, lr}
	sbcs	r6, r6, r10
	ldr	r1, [r1, #24]
	sbcs	r10, r7, r11
	ldr	r7, [sp, #4]                    @ 4-byte Reload
	str	r6, [sp]                        @ 4-byte Spill
	sbcs	r7, lr, r7
	ldm	r3, {r6, r12, lr}
	sbc	r1, r1, r8
	adds	r6, r2, r6
	str	r5, [sp, #12]                   @ 4-byte Spill
	adcs	r5, r5, r12
	str	r4, [sp, #8]                    @ 4-byte Spill
	adcs	lr, r4, lr
	ldr	r8, [r3, #12]
	ldr	r4, [sp]                        @ 4-byte Reload
	asr	r12, r1, #31
	ldr	r11, [r3, #16]
	adcs	r8, r4, r8
	ldr	r9, [r3, #20]
	ldr	r3, [r3, #24]
	adcs	r11, r10, r11
	str	r2, [sp, #16]                   @ 4-byte Spill
	adcs	r2, r7, r9
	adc	r3, r1, r3
	cmp	r12, #0
	movpl	r3, r1
	ldr	r1, [sp, #8]                    @ 4-byte Reload
	movpl	r2, r7
	movpl	r11, r10
	cmp	r12, #0
	str	r3, [r0, #24]
	movpl	lr, r1
	ldr	r1, [sp, #12]                   @ 4-byte Reload
	movpl	r8, r4
	str	r2, [r0, #20]
	str	r11, [r0, #16]
	movpl	r5, r1
	ldr	r1, [sp, #16]                   @ 4-byte Reload
	cmp	r12, #0
	str	r8, [r0, #12]
	str	lr, [r0, #8]
	movpl	r6, r1
	str	r5, [r0, #4]
	str	r6, [r0]
	add	sp, sp, #20
	pop	{r4, r5, r6, r7, r8, r9, r10, r11, lr}
	mov	pc, lr
.Lfunc_end36:
	.size	mcl_fp_subNF7L, .Lfunc_end36-mcl_fp_subNF7L
	.cantunwind
	.fnend
                                        @ -- End function
	.globl	mcl_fpDbl_add7L                 @ -- Begin function mcl_fpDbl_add7L
	.p2align	2
	.type	mcl_fpDbl_add7L,%function
	.code	32                              @ @mcl_fpDbl_add7L
mcl_fpDbl_add7L:
	.fnstart
@ %bb.0:
	.save	{r4, r5, r6, r7, r8, r9, r10, r11, lr}
	push	{r4, r5, r6, r7, r8, r9, r10, r11, lr}
	.pad	#40
	sub	sp, sp, #40
	ldr	r9, [r2]
	ldm	r1, {r4, r5, r6, r7}
	ldmib	r2, {r8, lr}
	adds	r4, r4, r9
	str	r4, [sp, #32]                   @ 4-byte Spill
	adcs	r4, r5, r8
	ldr	r12, [r2, #12]
	adcs	r6, r6, lr
	str	r6, [sp, #24]                   @ 4-byte Spill
	adcs	r7, r7, r12
	str	r7, [sp, #20]                   @ 4-byte Spill
	ldr	r6, [r2, #16]
	ldr	r7, [r1, #16]
	str	r4, [sp, #28]                   @ 4-byte Spill
	adcs	r7, r7, r6
	str	r7, [sp, #16]                   @ 4-byte Spill
	ldr	r4, [r2, #20]
	ldr	r7, [r1, #20]
	ldr	r6, [r1, #24]
	adcs	r7, r7, r4
	str	r7, [sp, #12]                   @ 4-byte Spill
	ldr	r7, [r2, #24]
	ldr	r5, [r1, #32]
	adcs	r7, r6, r7
	str	r7, [sp, #4]                    @ 4-byte Spill
	ldr	r7, [r2, #28]
	ldr	r6, [r1, #28]
	ldr	r4, [r1, #36]
	adcs	r9, r6, r7
	ldr	r6, [r2, #32]
	str	r9, [sp, #8]                    @ 4-byte Spill
	adcs	r7, r5, r6
	ldr	r5, [r2, #36]
	str	r7, [sp, #36]                   @ 4-byte Spill
	adcs	r8, r4, r5
	ldr	r5, [r2, #40]
	ldr	r7, [r1, #40]
	ldr	r6, [r1, #44]
	adcs	r5, r7, r5
	ldr	r7, [r2, #44]
	adcs	r7, r6, r7
	str	r7, [sp]                        @ 4-byte Spill
	ldr	r7, [r2, #48]
	ldr	r6, [r1, #48]
	ldr	r2, [r2, #52]
	ldr	r1, [r1, #52]
	adcs	r11, r6, r7
	adcs	r10, r1, r2
	mov	r1, #0
	adc	r7, r1, #0
	ldm	r3, {r1, r2, r12, lr}
	subs	r6, r9, r1
	ldr	r1, [sp, #36]                   @ 4-byte Reload
	sbcs	r9, r1, r2
	ldr	r1, [sp, #32]                   @ 4-byte Reload
	str	r1, [r0]
	sbcs	r4, r8, r12
	ldr	r1, [sp, #28]                   @ 4-byte Reload
	sbcs	lr, r5, lr
	str	r1, [r0, #4]
	ldr	r1, [sp, #24]                   @ 4-byte Reload
	str	r1, [r0, #8]
	ldr	r1, [sp, #20]                   @ 4-byte Reload
	str	r1, [r0, #12]
	ldr	r1, [sp, #16]                   @ 4-byte Reload
	str	r1, [r0, #16]
	ldr	r1, [sp, #12]                   @ 4-byte Reload
	str	r1, [r0, #20]
	ldr	r1, [sp, #4]                    @ 4-byte Reload
	str	r1, [r0, #24]
	ldr	r2, [r3, #24]
	ldr	r1, [r3, #20]
	ldr	r3, [r3, #16]
	ldr	r12, [sp]                       @ 4-byte Reload
	sbcs	r3, r12, r3
	sbcs	r1, r11, r1
	sbcs	r2, r10, r2
	sbc	r7, r7, #0
	ands	r7, r7, #1
	movne	r1, r11
	movne	r2, r10
	str	r1, [r0, #48]
	movne	r3, r12
	ldr	r1, [sp, #36]                   @ 4-byte Reload
	cmp	r7, #0
	movne	lr, r5
	movne	r4, r8
	str	r2, [r0, #52]
	movne	r9, r1
	ldr	r1, [sp, #8]                    @ 4-byte Reload
	cmp	r7, #0
	str	r3, [r0, #44]
	str	lr, [r0, #40]
	movne	r6, r1
	str	r4, [r0, #36]
	str	r9, [r0, #32]
	str	r6, [r0, #28]
	add	sp, sp, #40
	pop	{r4, r5, r6, r7, r8, r9, r10, r11, lr}
	mov	pc, lr
.Lfunc_end37:
	.size	mcl_fpDbl_add7L, .Lfunc_end37-mcl_fpDbl_add7L
	.cantunwind
	.fnend
                                        @ -- End function
	.globl	mcl_fpDbl_sub7L                 @ -- Begin function mcl_fpDbl_sub7L
	.p2align	2
	.type	mcl_fpDbl_sub7L,%function
	.code	32                              @ @mcl_fpDbl_sub7L
mcl_fpDbl_sub7L:
	.fnstart
@ %bb.0:
	.save	{r4, r5, r6, r7, r8, r9, r10, r11, lr}
	push	{r4, r5, r6, r7, r8, r9, r10, r11, lr}
	.pad	#60
	sub	sp, sp, #60
	ldr	r7, [r2, #32]
	str	r7, [sp, #28]                   @ 4-byte Spill
	ldr	r7, [r2, #36]
	str	r7, [sp, #36]                   @ 4-byte Spill
	ldr	r7, [r2, #40]
	str	r7, [sp, #40]                   @ 4-byte Spill
	ldr	r7, [r2, #44]
	str	r7, [sp, #44]                   @ 4-byte Spill
	ldr	r7, [r2, #48]
	str	r7, [sp, #48]                   @ 4-byte Spill
	ldr	r7, [r2, #52]
	str	r7, [sp, #52]                   @ 4-byte Spill
	ldr	r7, [r1, #52]
	str	r7, [sp, #32]                   @ 4-byte Spill
	ldr	r6, [r2]
	ldmib	r2, {r5, r7, r8, r9, r10, r11}
	ldr	r2, [r2, #28]
	str	r2, [sp, #56]                   @ 4-byte Spill
	ldm	r1, {r2, r12, lr}
	subs	r2, r2, r6
	str	r2, [sp, #24]                   @ 4-byte Spill
	ldr	r2, [r1, #48]
	str	r2, [sp]                        @ 4-byte Spill
	sbcs	r2, r12, r5
	ldr	r4, [r1, #12]
	str	r2, [sp, #20]                   @ 4-byte Spill
	sbcs	r2, lr, r7
	str	r2, [sp, #16]                   @ 4-byte Spill
	sbcs	r2, r4, r8
	str	r2, [sp, #12]                   @ 4-byte Spill
	mov	lr, #0
	ldr	r2, [r1, #16]
	ldr	r5, [sp, #56]                   @ 4-byte Reload
	sbcs	r2, r2, r9
	str	r2, [sp, #8]                    @ 4-byte Spill
	ldr	r2, [r1, #20]
	ldr	r6, [r1, #44]
	sbcs	r2, r2, r10
	str	r2, [sp, #4]                    @ 4-byte Spill
	ldr	r2, [r1, #24]
	ldr	r7, [r1, #40]
	sbcs	r11, r2, r11
	ldr	r2, [r1, #28]
	str	r11, [r0, #24]
	sbcs	r4, r2, r5
	ldr	r5, [r1, #36]
	ldr	r1, [r1, #32]
	ldr	r2, [sp, #28]                   @ 4-byte Reload
	ldr	r11, [r3, #24]
	sbcs	r12, r1, r2
	ldr	r1, [sp, #36]                   @ 4-byte Reload
	ldr	r2, [sp, #40]                   @ 4-byte Reload
	sbcs	r1, r5, r1
	ldr	r5, [sp, #44]                   @ 4-byte Reload
	sbcs	r2, r7, r2
	str	r12, [sp, #28]                  @ 4-byte Spill
	sbcs	r10, r6, r5
	ldr	r5, [sp, #48]                   @ 4-byte Reload
	ldr	r6, [sp]                        @ 4-byte Reload
	str	r4, [sp, #56]                   @ 4-byte Spill
	sbcs	r5, r6, r5
	str	r5, [sp, #48]                   @ 4-byte Spill
	ldr	r5, [sp, #52]                   @ 4-byte Reload
	ldr	r6, [sp, #32]                   @ 4-byte Reload
	sbcs	r9, r6, r5
	ldr	r6, [r3, #12]
	sbc	r7, lr, #0
	str	r7, [sp, #52]                   @ 4-byte Spill
	ldr	r7, [r3]
	ldmib	r3, {r5, lr}
	adds	r8, r4, r7
	adcs	r5, r12, r5
	ldr	r4, [sp, #52]                   @ 4-byte Reload
	adcs	r7, r1, lr
	mov	lr, r1
	ldr	r1, [sp, #24]                   @ 4-byte Reload
	adcs	r12, r2, r6
	str	r1, [r0]
	mov	r6, r10
	ldr	r1, [sp, #20]                   @ 4-byte Reload
	str	r1, [r0, #4]
	ldr	r1, [sp, #16]                   @ 4-byte Reload
	str	r1, [r0, #8]
	ldr	r1, [sp, #12]                   @ 4-byte Reload
	str	r1, [r0, #12]
	ldr	r1, [sp, #8]                    @ 4-byte Reload
	str	r1, [r0, #16]
	ldr	r1, [sp, #4]                    @ 4-byte Reload
	str	r1, [r0, #20]
	ldr	r1, [r3, #20]
	ldr	r3, [r3, #16]
	adcs	r3, r10, r3
	ldr	r10, [sp, #48]                  @ 4-byte Reload
	adcs	r1, r10, r1
	adc	r11, r9, r11
	ands	r4, r4, #1
	moveq	r1, r10
	moveq	r11, r9
	str	r1, [r0, #48]
	moveq	r3, r6
	ldr	r1, [sp, #28]                   @ 4-byte Reload
	cmp	r4, #0
	moveq	r12, r2
	moveq	r7, lr
	str	r11, [r0, #52]
	moveq	r5, r1
	ldr	r1, [sp, #56]                   @ 4-byte Reload
	cmp	r4, #0
	str	r3, [r0, #44]
	str	r12, [r0, #40]
	moveq	r8, r1
	str	r7, [r0, #36]
	str	r5, [r0, #32]
	str	r8, [r0, #28]
	add	sp, sp, #60
	pop	{r4, r5, r6, r7, r8, r9, r10, r11, lr}
	mov	pc, lr
.Lfunc_end38:
	.size	mcl_fpDbl_sub7L, .Lfunc_end38-mcl_fpDbl_sub7L
	.cantunwind
	.fnend
                                        @ -- End function
	.globl	mulPv256x32                     @ -- Begin function mulPv256x32
	.p2align	2
	.type	mulPv256x32,%function
	.code	32                              @ @mulPv256x32
mulPv256x32:
	.fnstart
@ %bb.0:
	.save	{r4, r5, r6, r7, r8, r9, r11, lr}
	push	{r4, r5, r6, r7, r8, r9, r11, lr}
	ldr	r12, [r1]
	ldmib	r1, {r3, lr}
	umull	r7, r6, r12, r2
	ldr	r4, [r1, #12]
	umull	r5, r8, r3, r2
	str	r7, [r0]
	umull	r9, r12, r4, r2
	adds	r7, r6, r5
	umull	r5, r4, lr, r2
	adcs	r7, r8, r5
	umlal	r6, r5, r3, r2
	adcs	r7, r4, r9
	str	r7, [r0, #12]
	str	r5, [r0, #8]
	str	r6, [r0, #4]
	ldr	r3, [r1, #16]
	umull	r7, r6, r3, r2
	adcs	r3, r12, r7
	str	r3, [r0, #16]
	ldr	r3, [r1, #20]
	umull	r7, r5, r3, r2
	adcs	r3, r6, r7
	str	r3, [r0, #20]
	ldr	r3, [r1, #24]
	umull	r7, r6, r3, r2
	adcs	r3, r5, r7
	str	r3, [r0, #24]
	ldr	r1, [r1, #28]
	umull	r3, r7, r1, r2
	adcs	r1, r6, r3
	str	r1, [r0, #28]
	adc	r1, r7, #0
	str	r1, [r0, #32]
	pop	{r4, r5, r6, r7, r8, r9, r11, lr}
	mov	pc, lr
.Lfunc_end39:
	.size	mulPv256x32, .Lfunc_end39-mulPv256x32
	.cantunwind
	.fnend
                                        @ -- End function
	.globl	mcl_fp_mulUnitPre8L             @ -- Begin function mcl_fp_mulUnitPre8L
	.p2align	2
	.type	mcl_fp_mulUnitPre8L,%function
	.code	32                              @ @mcl_fp_mulUnitPre8L
mcl_fp_mulUnitPre8L:
	.fnstart
@ %bb.0:
	.save	{r4, r5, r6, r7, r11, lr}
	push	{r4, r5, r6, r7, r11, lr}
	.pad	#40
	sub	sp, sp, #40
	mov	r4, r0
	mov	r0, sp
	bl	mulPv256x32
	add	r7, sp, #24
	ldm	sp, {r0, r1, r2, r3, r12, lr}
	ldm	r7, {r5, r6, r7}
	stm	r4, {r0, r1, r2, r3, r12, lr}
	add	r0, r4, #24
	stm	r0, {r5, r6, r7}
	add	sp, sp, #40
	pop	{r4, r5, r6, r7, r11, lr}
	mov	pc, lr
.Lfunc_end40:
	.size	mcl_fp_mulUnitPre8L, .Lfunc_end40-mcl_fp_mulUnitPre8L
	.cantunwind
	.fnend
                                        @ -- End function
	.globl	mcl_fpDbl_mulPre8L              @ -- Begin function mcl_fpDbl_mulPre8L
	.p2align	2
	.type	mcl_fpDbl_mulPre8L,%function
	.code	32                              @ @mcl_fpDbl_mulPre8L
mcl_fpDbl_mulPre8L:
	.fnstart
@ %bb.0:
	.save	{r4, r5, r6, r7, r8, r9, r10, r11, lr}
	push	{r4, r5, r6, r7, r8, r9, r10, r11, lr}
	.pad	#356
	sub	sp, sp, #356
	mov	r9, r2
	ldr	r2, [r2]
	mov	r4, r0
	add	r0, sp, #312
	mov	r7, r1
	bl	mulPv256x32
	ldr	r0, [sp, #344]
	str	r0, [sp, #28]                   @ 4-byte Spill
	ldr	r0, [sp, #340]
	str	r0, [sp, #24]                   @ 4-byte Spill
	ldr	r0, [sp, #336]
	str	r0, [sp, #20]                   @ 4-byte Spill
	ldr	r0, [sp, #332]
	str	r0, [sp, #16]                   @ 4-byte Spill
	ldr	r0, [sp, #328]
	str	r0, [sp, #12]                   @ 4-byte Spill
	ldr	r1, [sp, #320]
	ldr	r0, [sp, #312]
	ldr	r8, [sp, #316]
	str	r1, [sp, #4]                    @ 4-byte Spill
	mov	r1, r7
	ldr	r2, [r9, #4]
	ldr	r10, [sp, #324]
	str	r0, [r4]
	add	r0, sp, #272
	bl	mulPv256x32
	ldr	r5, [sp, #272]
	add	lr, sp, #280
	ldr	r12, [sp, #304]
	adds	r5, r5, r8
	ldr	r6, [sp, #276]
	ldm	lr, {r0, r1, r2, r3, r11, lr}
	str	r5, [r4, #4]
	ldr	r5, [sp, #4]                    @ 4-byte Reload
	adcs	r8, r6, r5
	adcs	r0, r0, r10
	str	r0, [sp, #4]                    @ 4-byte Spill
	ldr	r0, [sp, #12]                   @ 4-byte Reload
	adcs	r0, r1, r0
	str	r0, [sp, #12]                   @ 4-byte Spill
	ldr	r0, [sp, #16]                   @ 4-byte Reload
	mov	r1, r7
	adcs	r0, r2, r0
	str	r0, [sp, #16]                   @ 4-byte Spill
	ldr	r0, [sp, #20]                   @ 4-byte Reload
	ldr	r2, [r9, #8]
	adcs	r10, r3, r0
	ldr	r0, [sp, #24]                   @ 4-byte Reload
	adcs	r0, r11, r0
	str	r0, [sp, #24]                   @ 4-byte Spill
	ldr	r0, [sp, #28]                   @ 4-byte Reload
	adcs	r0, lr, r0
	str	r0, [sp, #28]                   @ 4-byte Spill
	adc	r0, r12, #0
	str	r0, [sp, #20]                   @ 4-byte Spill
	add	r0, sp, #232
	bl	mulPv256x32
	ldr	r1, [sp, #232]
	add	r11, sp, #256
	add	lr, sp, #236
	adds	r1, r1, r8
	ldm	r11, {r5, r6, r11}
	ldm	lr, {r0, r2, r3, r12, lr}
	str	r1, [r4, #8]
	ldr	r1, [sp, #4]                    @ 4-byte Reload
	adcs	r8, r0, r1
	ldr	r0, [sp, #12]                   @ 4-byte Reload
	mov	r1, r7
	adcs	r0, r2, r0
	str	r0, [sp, #12]                   @ 4-byte Spill
	ldr	r0, [sp, #16]                   @ 4-byte Reload
	ldr	r2, [r9, #12]
	adcs	r0, r3, r0
	str	r0, [sp, #16]                   @ 4-byte Spill
	ldr	r0, [sp, #24]                   @ 4-byte Reload
	adcs	r10, r12, r10
	adcs	r0, lr, r0
	str	r0, [sp, #24]                   @ 4-byte Spill
	ldr	r0, [sp, #28]                   @ 4-byte Reload
	adcs	r0, r5, r0
	str	r0, [sp, #28]                   @ 4-byte Spill
	ldr	r0, [sp, #20]                   @ 4-byte Reload
	mov	r5, r7
	adcs	r0, r6, r0
	str	r0, [sp, #20]                   @ 4-byte Spill
	adc	r0, r11, #0
	str	r0, [sp, #4]                    @ 4-byte Spill
	add	r0, sp, #192
	bl	mulPv256x32
	ldr	r6, [sp, #192]
	add	lr, sp, #200
	ldr	r12, [sp, #224]
	adds	r6, r6, r8
	ldr	r7, [sp, #196]
	ldm	lr, {r0, r1, r2, r3, r11, lr}
	str	r6, [r4, #12]
	ldr	r6, [sp, #12]                   @ 4-byte Reload
	adcs	r8, r7, r6
	ldr	r6, [sp, #16]                   @ 4-byte Reload
	adcs	r0, r0, r6
	str	r0, [sp, #16]                   @ 4-byte Spill
	adcs	r0, r1, r10
	str	r0, [sp, #12]                   @ 4-byte Spill
	ldr	r0, [sp, #24]                   @ 4-byte Reload
	mov	r1, r5
	adcs	r0, r2, r0
	str	r0, [sp, #24]                   @ 4-byte Spill
	ldr	r0, [sp, #28]                   @ 4-byte Reload
	ldr	r2, [r9, #16]
	adcs	r10, r3, r0
	ldr	r0, [sp, #20]                   @ 4-byte Reload
	adcs	r0, r11, r0
	str	r0, [sp, #28]                   @ 4-byte Spill
	ldr	r0, [sp, #4]                    @ 4-byte Reload
	adcs	r0, lr, r0
	str	r0, [sp, #20]                   @ 4-byte Spill
	adc	r0, r12, #0
	str	r0, [sp, #4]                    @ 4-byte Spill
	add	r0, sp, #152
	bl	mulPv256x32
	ldr	r1, [sp, #152]
	add	lr, sp, #156
	ldr	r11, [sp, #184]
	adds	r1, r1, r8
	ldr	r6, [sp, #180]
	ldr	r7, [sp, #176]
	ldm	lr, {r0, r2, r3, r12, lr}
	str	r1, [r4, #16]
	ldr	r1, [sp, #16]                   @ 4-byte Reload
	str	r5, [sp, #8]                    @ 4-byte Spill
	adcs	r8, r0, r1
	ldr	r0, [sp, #12]                   @ 4-byte Reload
	mov	r1, r5
	adcs	r0, r2, r0
	str	r0, [sp, #16]                   @ 4-byte Spill
	ldr	r0, [sp, #24]                   @ 4-byte Reload
	ldr	r2, [r9, #20]
	adcs	r0, r3, r0
	str	r0, [sp, #24]                   @ 4-byte Spill
	ldr	r0, [sp, #28]                   @ 4-byte Reload
	adcs	r10, r12, r10
	adcs	r0, lr, r0
	str	r0, [sp, #28]                   @ 4-byte Spill
	ldr	r0, [sp, #20]                   @ 4-byte Reload
	adcs	r0, r7, r0
	str	r0, [sp, #20]                   @ 4-byte Spill
	ldr	r0, [sp, #4]                    @ 4-byte Reload
	adcs	r0, r6, r0
	str	r0, [sp, #12]                   @ 4-byte Spill
	adc	r0, r11, #0
	str	r0, [sp, #4]                    @ 4-byte Spill
	add	r0, sp, #112
	bl	mulPv256x32
	ldr	r6, [sp, #112]
	add	lr, sp, #120
	ldr	r12, [sp, #144]
	adds	r6, r6, r8
	ldr	r7, [sp, #116]
	ldm	lr, {r0, r1, r2, r3, r11, lr}
	str	r6, [r4, #20]
	ldr	r6, [sp, #16]                   @ 4-byte Reload
	adcs	r8, r7, r6
	ldr	r6, [sp, #24]                   @ 4-byte Reload
	adcs	r7, r0, r6
	ldr	r0, [sp, #28]                   @ 4-byte Reload
	adcs	r10, r1, r10
	mov	r1, r5
	adcs	r0, r2, r0
	str	r0, [sp, #28]                   @ 4-byte Spill
	ldr	r0, [sp, #20]                   @ 4-byte Reload
	ldr	r2, [r9, #24]
	adcs	r0, r3, r0
	str	r0, [sp, #24]                   @ 4-byte Spill
	ldr	r0, [sp, #12]                   @ 4-byte Reload
	adcs	r0, r11, r0
	str	r0, [sp, #20]                   @ 4-byte Spill
	ldr	r0, [sp, #4]                    @ 4-byte Reload
	adcs	r0, lr, r0
	str	r0, [sp, #16]                   @ 4-byte Spill
	adc	r0, r12, #0
	str	r0, [sp, #12]                   @ 4-byte Spill
	add	r0, sp, #72
	bl	mulPv256x32
	add	lr, sp, #76
	ldr	r2, [sp, #72]
	add	r11, sp, #96
	ldm	lr, {r0, r1, r3, r12, lr}
	adds	r2, r2, r8
	adcs	r8, r0, r7
	ldr	r0, [sp, #28]                   @ 4-byte Reload
	ldm	r11, {r5, r6, r11}
	str	r2, [r4, #24]
	ldr	r2, [r9, #28]
	adcs	r9, r1, r10
	adcs	r7, r3, r0
	ldr	r0, [sp, #24]                   @ 4-byte Reload
	ldr	r1, [sp, #8]                    @ 4-byte Reload
	adcs	r10, r12, r0
	ldr	r0, [sp, #20]                   @ 4-byte Reload
	adcs	r0, lr, r0
	str	r0, [sp, #28]                   @ 4-byte Spill
	ldr	r0, [sp, #16]                   @ 4-byte Reload
	adcs	r0, r5, r0
	str	r0, [sp, #24]                   @ 4-byte Spill
	ldr	r0, [sp, #12]                   @ 4-byte Reload
	adcs	r0, r6, r0
	str	r0, [sp, #20]                   @ 4-byte Spill
	add	r0, sp, #32
	adc	r11, r11, #0
	bl	mulPv256x32
	add	r3, sp, #32
	ldr	r6, [sp, #56]
	ldr	r5, [sp, #60]
	ldm	r3, {r0, r1, r2, r3}
	adds	lr, r0, r8
	ldr	r0, [sp, #48]
	adcs	r8, r1, r9
	ldr	r1, [sp, #28]                   @ 4-byte Reload
	adcs	r2, r2, r7
	ldr	r7, [sp, #52]
	adcs	r3, r3, r10
	ldr	r12, [sp, #64]
	adcs	r0, r0, r1
	ldr	r1, [sp, #24]                   @ 4-byte Reload
	str	lr, [r4, #28]
	adcs	r7, r7, r1
	ldr	r1, [sp, #20]                   @ 4-byte Reload
	str	r8, [r4, #32]
	adcs	r6, r6, r1
	str	r2, [r4, #36]
	adcs	r5, r5, r11
	str	r0, [r4, #44]
	adc	r0, r12, #0
	str	r3, [r4, #40]
	str	r7, [r4, #48]
	str	r6, [r4, #52]
	str	r5, [r4, #56]
	str	r0, [r4, #60]
	add	sp, sp, #356
	pop	{r4, r5, r6, r7, r8, r9, r10, r11, lr}
	mov	pc, lr
.Lfunc_end41:
	.size	mcl_fpDbl_mulPre8L, .Lfunc_end41-mcl_fpDbl_mulPre8L
	.cantunwind
	.fnend
                                        @ -- End function
	.globl	mcl_fpDbl_sqrPre8L              @ -- Begin function mcl_fpDbl_sqrPre8L
	.p2align	2
	.type	mcl_fpDbl_sqrPre8L,%function
	.code	32                              @ @mcl_fpDbl_sqrPre8L
mcl_fpDbl_sqrPre8L:
	.fnstart
@ %bb.0:
	.save	{r4, r5, r6, r7, r8, r9, r10, r11, lr}
	push	{r4, r5, r6, r7, r8, r9, r10, r11, lr}
	.pad	#356
	sub	sp, sp, #356
	ldr	r2, [r1]
	mov	r4, r0
	add	r0, sp, #312
	mov	r5, r1
	bl	mulPv256x32
	ldr	r0, [sp, #344]
	mov	r1, r5
	str	r0, [sp, #28]                   @ 4-byte Spill
	ldr	r0, [sp, #340]
	str	r0, [sp, #24]                   @ 4-byte Spill
	ldr	r0, [sp, #336]
	str	r0, [sp, #20]                   @ 4-byte Spill
	ldr	r0, [sp, #332]
	str	r0, [sp, #16]                   @ 4-byte Spill
	ldr	r0, [sp, #328]
	str	r0, [sp, #12]                   @ 4-byte Spill
	ldr	r0, [sp, #312]
	ldr	r2, [r5, #4]
	ldr	r11, [sp, #316]
	ldr	r10, [sp, #320]
	ldr	r9, [sp, #324]
	str	r0, [r4]
	add	r0, sp, #272
	bl	mulPv256x32
	add	r6, sp, #276
	ldr	r7, [sp, #272]
	add	lr, sp, #292
	ldr	r8, [sp, #304]
	ldm	r6, {r0, r1, r2, r6}
	adds	r7, r7, r11
	adcs	r10, r0, r10
	ldr	r0, [sp, #12]                   @ 4-byte Reload
	adcs	r9, r1, r9
	ldm	lr, {r3, r12, lr}
	adcs	r0, r2, r0
	str	r0, [sp, #12]                   @ 4-byte Spill
	mov	r1, r5
	ldr	r0, [sp, #16]                   @ 4-byte Reload
	ldr	r2, [r5, #8]
	adcs	r0, r6, r0
	str	r0, [sp, #16]                   @ 4-byte Spill
	ldr	r0, [sp, #20]                   @ 4-byte Reload
	str	r7, [r4, #4]
	adcs	r11, r3, r0
	ldr	r0, [sp, #24]                   @ 4-byte Reload
	adcs	r0, r12, r0
	str	r0, [sp, #24]                   @ 4-byte Spill
	ldr	r0, [sp, #28]                   @ 4-byte Reload
	adcs	r0, lr, r0
	str	r0, [sp, #28]                   @ 4-byte Spill
	adc	r0, r8, #0
	str	r0, [sp, #20]                   @ 4-byte Spill
	add	r0, sp, #232
	bl	mulPv256x32
	add	lr, sp, #236
	ldr	r1, [sp, #232]
	add	r8, sp, #256
	ldm	lr, {r0, r2, r3, r12, lr}
	adds	r1, r1, r10
	adcs	r9, r0, r9
	ldr	r0, [sp, #12]                   @ 4-byte Reload
	ldm	r8, {r6, r7, r8}
	adcs	r10, r2, r0
	ldr	r0, [sp, #16]                   @ 4-byte Reload
	ldr	r2, [r5, #12]
	adcs	r0, r3, r0
	str	r0, [sp, #16]                   @ 4-byte Spill
	ldr	r0, [sp, #24]                   @ 4-byte Reload
	adcs	r11, r12, r11
	str	r1, [r4, #8]
	mov	r1, r5
	adcs	r0, lr, r0
	str	r0, [sp, #24]                   @ 4-byte Spill
	ldr	r0, [sp, #28]                   @ 4-byte Reload
	adcs	r0, r6, r0
	str	r0, [sp, #28]                   @ 4-byte Spill
	ldr	r0, [sp, #20]                   @ 4-byte Reload
	adcs	r0, r7, r0
	str	r0, [sp, #20]                   @ 4-byte Spill
	adc	r0, r8, #0
	str	r0, [sp, #12]                   @ 4-byte Spill
	add	r0, sp, #192
	bl	mulPv256x32
	add	r6, sp, #196
	ldr	r7, [sp, #192]
	add	lr, sp, #212
	ldr	r8, [sp, #224]
	ldm	r6, {r0, r1, r2, r6}
	adds	r7, r7, r9
	adcs	r9, r0, r10
	ldr	r0, [sp, #16]                   @ 4-byte Reload
	ldm	lr, {r3, r12, lr}
	adcs	r0, r1, r0
	str	r0, [sp, #16]                   @ 4-byte Spill
	adcs	r10, r2, r11
	ldr	r0, [sp, #24]                   @ 4-byte Reload
	mov	r1, r5
	ldr	r2, [r5, #16]
	adcs	r0, r6, r0
	str	r0, [sp, #24]                   @ 4-byte Spill
	ldr	r0, [sp, #28]                   @ 4-byte Reload
	str	r7, [r4, #12]
	adcs	r11, r3, r0
	ldr	r0, [sp, #20]                   @ 4-byte Reload
	adcs	r0, r12, r0
	str	r0, [sp, #28]                   @ 4-byte Spill
	ldr	r0, [sp, #12]                   @ 4-byte Reload
	adcs	r0, lr, r0
	str	r0, [sp, #20]                   @ 4-byte Spill
	adc	r0, r8, #0
	str	r0, [sp, #12]                   @ 4-byte Spill
	add	r0, sp, #152
	bl	mulPv256x32
	ldr	r1, [sp, #152]
	add	r8, sp, #176
	add	lr, sp, #156
	adds	r1, r1, r9
	ldm	r8, {r6, r7, r8}
	ldm	lr, {r0, r2, r3, r12, lr}
	str	r1, [r4, #16]
	ldr	r1, [sp, #16]                   @ 4-byte Reload
	adcs	r9, r0, r1
	ldr	r0, [sp, #24]                   @ 4-byte Reload
	adcs	r10, r2, r10
	ldr	r2, [r5, #20]
	adcs	r0, r3, r0
	str	r0, [sp, #24]                   @ 4-byte Spill
	ldr	r0, [sp, #28]                   @ 4-byte Reload
	adcs	r11, r12, r11
	mov	r1, r5
	adcs	r0, lr, r0
	str	r0, [sp, #16]                   @ 4-byte Spill
	ldr	r0, [sp, #20]                   @ 4-byte Reload
	adcs	r0, r6, r0
	str	r0, [sp, #20]                   @ 4-byte Spill
	ldr	r0, [sp, #12]                   @ 4-byte Reload
	adcs	r0, r7, r0
	str	r0, [sp, #12]                   @ 4-byte Spill
	adc	r0, r8, #0
	str	r0, [sp, #8]                    @ 4-byte Spill
	add	r0, sp, #112
	bl	mulPv256x32
	add	r6, sp, #116
	ldr	r7, [sp, #112]
	add	lr, sp, #132
	ldr	r8, [sp, #144]
	ldm	r6, {r0, r1, r2, r6}
	adds	r7, r7, r9
	adcs	r9, r0, r10
	ldr	r0, [sp, #24]                   @ 4-byte Reload
	ldm	lr, {r3, r12, lr}
	adcs	r0, r1, r0
	str	r0, [sp, #28]                   @ 4-byte Spill
	adcs	r10, r2, r11
	ldr	r0, [sp, #16]                   @ 4-byte Reload
	mov	r1, r5
	ldr	r2, [r5, #24]
	adcs	r11, r6, r0
	ldr	r0, [sp, #20]                   @ 4-byte Reload
	str	r7, [r4, #20]
	adcs	r0, r3, r0
	str	r0, [sp, #24]                   @ 4-byte Spill
	ldr	r0, [sp, #12]                   @ 4-byte Reload
	adcs	r0, r12, r0
	str	r0, [sp, #20]                   @ 4-byte Spill
	ldr	r0, [sp, #8]                    @ 4-byte Reload
	adcs	r0, lr, r0
	str	r0, [sp, #16]                   @ 4-byte Spill
	adc	r0, r8, #0
	str	r0, [sp, #12]                   @ 4-byte Spill
	add	r0, sp, #72
	bl	mulPv256x32
	ldr	r0, [sp, #104]
	add	lr, sp, #76
	str	r0, [sp, #8]                    @ 4-byte Spill
	ldr	r0, [sp, #100]
	str	r0, [sp, #4]                    @ 4-byte Spill
	ldr	r2, [sp, #72]
	ldm	lr, {r0, r1, r3, r12, lr}
	adds	r2, r2, r9
	ldr	r7, [sp, #28]                   @ 4-byte Reload
	ldr	r6, [sp, #96]
	adcs	r9, r0, r7
	ldr	r0, [sp, #24]                   @ 4-byte Reload
	adcs	r10, r1, r10
	ldr	r1, [sp, #4]                    @ 4-byte Reload
	adcs	r8, r3, r11
	str	r2, [r4, #24]
	adcs	r11, r12, r0
	ldr	r0, [sp, #20]                   @ 4-byte Reload
	ldr	r2, [r5, #28]
	adcs	r0, lr, r0
	str	r0, [sp, #28]                   @ 4-byte Spill
	ldr	r0, [sp, #16]                   @ 4-byte Reload
	adcs	r0, r6, r0
	str	r0, [sp, #24]                   @ 4-byte Spill
	ldr	r0, [sp, #12]                   @ 4-byte Reload
	adcs	r0, r1, r0
	str	r0, [sp, #20]                   @ 4-byte Spill
	ldr	r0, [sp, #8]                    @ 4-byte Reload
	mov	r1, r5
	adc	r0, r0, #0
	str	r0, [sp, #16]                   @ 4-byte Spill
	add	r0, sp, #32
	bl	mulPv256x32
	add	r3, sp, #32
	add	r7, sp, #48
	ldr	r6, [sp, #60]
	ldm	r3, {r0, r1, r2, r3}
	adds	lr, r0, r9
	ldm	r7, {r0, r5, r7}
	adcs	r9, r1, r10
	adcs	r2, r2, r8
	ldr	r1, [sp, #28]                   @ 4-byte Reload
	adcs	r3, r3, r11
	ldr	r12, [sp, #64]
	adcs	r0, r0, r1
	ldr	r1, [sp, #24]                   @ 4-byte Reload
	str	lr, [r4, #28]
	adcs	r5, r5, r1
	ldr	r1, [sp, #20]                   @ 4-byte Reload
	str	r9, [r4, #32]
	adcs	r7, r7, r1
	ldr	r1, [sp, #16]                   @ 4-byte Reload
	str	r2, [r4, #36]
	adcs	r6, r6, r1
	add	r1, r4, #44
	str	r3, [r4, #40]
	stm	r1, {r0, r5, r7}
	adc	r0, r12, #0
	str	r6, [r4, #56]
	str	r0, [r4, #60]
	add	sp, sp, #356
	pop	{r4, r5, r6, r7, r8, r9, r10, r11, lr}
	mov	pc, lr
.Lfunc_end42:
	.size	mcl_fpDbl_sqrPre8L, .Lfunc_end42-mcl_fpDbl_sqrPre8L
	.cantunwind
	.fnend
                                        @ -- End function
	.globl	mcl_fp_mont8L                   @ -- Begin function mcl_fp_mont8L
	.p2align	2
	.type	mcl_fp_mont8L,%function
	.code	32                              @ @mcl_fp_mont8L
mcl_fp_mont8L:
	.fnstart
@ %bb.0:
	.save	{r4, r5, r6, r7, r8, r9, r10, r11, lr}
	push	{r4, r5, r6, r7, r8, r9, r10, r11, lr}
	.pad	#716
	sub	sp, sp, #716
	mov	r7, r2
	ldr	r2, [r2]
	str	r0, [sp, #52]                   @ 4-byte Spill
	add	r0, sp, #672
	ldr	r5, [r3, #-4]
	mov	r4, r3
	str	r5, [sp, #64]                   @ 4-byte Spill
	mov	r11, r1
	str	r3, [sp, #68]                   @ 4-byte Spill
	str	r7, [sp, #60]                   @ 4-byte Spill
	str	r1, [sp, #56]                   @ 4-byte Spill
	bl	mulPv256x32
	ldr	r0, [sp, #676]
	mov	r1, r4
	ldr	r9, [sp, #672]
	str	r0, [sp, #40]                   @ 4-byte Spill
	ldr	r0, [sp, #680]
	str	r0, [sp, #36]                   @ 4-byte Spill
	mul	r2, r5, r9
	ldr	r0, [sp, #684]
	str	r0, [sp, #32]                   @ 4-byte Spill
	ldr	r0, [sp, #704]
	str	r0, [sp, #48]                   @ 4-byte Spill
	ldr	r0, [sp, #700]
	str	r0, [sp, #44]                   @ 4-byte Spill
	ldr	r0, [sp, #696]
	str	r0, [sp, #28]                   @ 4-byte Spill
	ldr	r0, [sp, #692]
	str	r0, [sp, #24]                   @ 4-byte Spill
	ldr	r0, [sp, #688]
	str	r0, [sp, #20]                   @ 4-byte Spill
	add	r0, sp, #632
	bl	mulPv256x32
	ldr	r0, [sp, #664]
	add	r10, sp, #636
	str	r0, [sp, #16]                   @ 4-byte Spill
	mov	r1, r11
	ldr	r0, [sp, #660]
	str	r0, [sp, #12]                   @ 4-byte Spill
	ldr	r0, [sp, #656]
	str	r0, [sp, #8]                    @ 4-byte Spill
	add	r0, sp, #592
	ldr	r2, [r7, #4]
	ldm	r10, {r5, r8, r10}
	ldr	r7, [sp, #652]
	ldr	r4, [sp, #648]
	ldr	r6, [sp, #632]
	bl	mulPv256x32
	adds	r0, r6, r9
	ldr	r2, [sp, #8]                    @ 4-byte Reload
	ldr	r0, [sp, #40]                   @ 4-byte Reload
	mov	r1, #0
	add	r12, sp, #596
	adcs	r0, r5, r0
	str	r0, [sp, #40]                   @ 4-byte Spill
	ldr	r0, [sp, #36]                   @ 4-byte Reload
	ldr	lr, [sp, #40]                   @ 4-byte Reload
	adcs	r0, r8, r0
	str	r0, [sp, #36]                   @ 4-byte Spill
	ldr	r0, [sp, #32]                   @ 4-byte Reload
	ldr	r5, [sp, #36]                   @ 4-byte Reload
	adcs	r10, r10, r0
	ldr	r0, [sp, #20]                   @ 4-byte Reload
	adcs	r0, r4, r0
	str	r0, [sp, #32]                   @ 4-byte Spill
	ldr	r0, [sp, #24]                   @ 4-byte Reload
	adcs	r0, r7, r0
	str	r0, [sp, #24]                   @ 4-byte Spill
	ldr	r0, [sp, #28]                   @ 4-byte Reload
	adcs	r11, r2, r0
	ldr	r0, [sp, #44]                   @ 4-byte Reload
	ldr	r2, [sp, #12]                   @ 4-byte Reload
	adcs	r7, r2, r0
	ldr	r0, [sp, #48]                   @ 4-byte Reload
	ldr	r2, [sp, #16]                   @ 4-byte Reload
	adcs	r0, r2, r0
	str	r0, [sp, #20]                   @ 4-byte Spill
	adc	r0, r1, #0
	str	r0, [sp, #16]                   @ 4-byte Spill
	ldr	r4, [sp, #592]
	ldm	r12, {r0, r1, r2, r3, r6, r12}
	adds	r4, lr, r4
	adcs	r0, r5, r0
	ldr	r8, [sp, #624]
	ldr	r9, [sp, #620]
	str	r0, [sp, #48]                   @ 4-byte Spill
	adcs	r0, r10, r1
	str	r0, [sp, #44]                   @ 4-byte Spill
	ldr	r0, [sp, #32]                   @ 4-byte Reload
	ldr	r1, [sp, #68]                   @ 4-byte Reload
	adcs	r0, r0, r2
	str	r0, [sp, #40]                   @ 4-byte Spill
	ldr	r0, [sp, #24]                   @ 4-byte Reload
	adcs	r0, r0, r3
	str	r0, [sp, #36]                   @ 4-byte Spill
	adcs	r0, r11, r6
	str	r0, [sp, #32]                   @ 4-byte Spill
	adcs	r0, r7, r12
	str	r0, [sp, #28]                   @ 4-byte Spill
	ldr	r0, [sp, #20]                   @ 4-byte Reload
	adcs	r0, r0, r9
	str	r0, [sp, #24]                   @ 4-byte Spill
	ldr	r0, [sp, #16]                   @ 4-byte Reload
	adcs	r0, r0, r8
	str	r0, [sp, #20]                   @ 4-byte Spill
	mov	r0, #0
	adc	r0, r0, #0
	str	r0, [sp, #16]                   @ 4-byte Spill
	ldr	r0, [sp, #64]                   @ 4-byte Reload
	mul	r2, r0, r4
	add	r0, sp, #552
	bl	mulPv256x32
	ldr	r0, [sp, #584]
	str	r0, [sp, #12]                   @ 4-byte Spill
	ldr	r5, [sp, #60]                   @ 4-byte Reload
	ldr	r0, [sp, #580]
	str	r0, [sp, #8]                    @ 4-byte Spill
	ldr	r0, [sp, #576]
	ldr	r2, [r5, #8]
	ldr	r1, [sp, #56]                   @ 4-byte Reload
	str	r0, [sp, #4]                    @ 4-byte Spill
	add	r0, sp, #512
	ldr	r6, [sp, #572]
	ldr	r7, [sp, #568]
	ldr	r10, [sp, #552]
	ldr	r11, [sp, #556]
	ldr	r8, [sp, #560]
	ldr	r9, [sp, #564]
	bl	mulPv256x32
	adds	r0, r4, r10
	ldr	r1, [sp, #4]                    @ 4-byte Reload
	ldr	r0, [sp, #48]                   @ 4-byte Reload
	add	lr, sp, #512
	adcs	r0, r0, r11
	str	r0, [sp, #48]                   @ 4-byte Spill
	ldr	r0, [sp, #44]                   @ 4-byte Reload
	adcs	r10, r0, r8
	ldr	r0, [sp, #40]                   @ 4-byte Reload
	adcs	r11, r0, r9
	ldr	r0, [sp, #36]                   @ 4-byte Reload
	adcs	r0, r0, r7
	str	r0, [sp, #40]                   @ 4-byte Spill
	ldr	r0, [sp, #32]                   @ 4-byte Reload
	adcs	r0, r0, r6
	str	r0, [sp, #36]                   @ 4-byte Spill
	ldr	r0, [sp, #28]                   @ 4-byte Reload
	ldr	r6, [sp, #48]                   @ 4-byte Reload
	adcs	r0, r0, r1
	str	r0, [sp, #32]                   @ 4-byte Spill
	ldr	r0, [sp, #24]                   @ 4-byte Reload
	ldr	r1, [sp, #8]                    @ 4-byte Reload
	adcs	r7, r0, r1
	ldr	r0, [sp, #20]                   @ 4-byte Reload
